GAS LISTING /var/folders/yG/yGnXnnFGGj4hKA71DL26EU+++TI/-Tmp-//ccdybZNV.s 			page 1


   1               		.file	"hfModulation.c"
   2               	__SP_H__ = 0x3e
   3               	__SP_L__ = 0x3d
   4               	__SREG__ = 0x3f
   5               	__tmp_reg__ = 0
   6               	__zero_reg__ = 1
   7               		.stabs	"/Users/meh/_avrProjects/LCDdirectLVDS/67-pwm161/",100,0,2,.Ltext0
   8               		.stabs	"../../../_commonCode/hfModulation/1.00/hfModulation.c",100,0,2,.Ltext0
   9               		.text
  10               	.Ltext0:
  11               		.stabs	"gcc2_compiled.",60,0,0,0
  12               		.stabs	"int:t(0,1)=r(0,1);-32768;32767;",128,0,0,0
  13               		.stabs	"char:t(0,2)=@s8;r(0,2);0;255;",128,0,0,0
  14               		.stabs	"long int:t(0,3)=@s32;r(0,3);020000000000;017777777777;",128,0,0,0
  15               		.stabs	"unsigned int:t(0,4)=r(0,4);0;0177777;",128,0,0,0
  16               		.stabs	"long unsigned int:t(0,5)=@s32;r(0,5);0;037777777777;",128,0,0,0
  17               		.stabs	"long long int:t(0,6)=@s64;r(0,6);01000000000000000000000;0777777777777777777777;",128,0,0,
  18               		.stabs	"long long unsigned int:t(0,7)=@s64;r(0,7);0;01777777777777777777777;",128,0,0,0
  19               		.stabs	"short int:t(0,8)=r(0,8);-32768;32767;",128,0,0,0
  20               		.stabs	"short unsigned int:t(0,9)=r(0,9);0;0177777;",128,0,0,0
  21               		.stabs	"signed char:t(0,10)=@s8;r(0,10);-128;127;",128,0,0,0
  22               		.stabs	"unsigned char:t(0,11)=@s8;r(0,11);0;255;",128,0,0,0
  23               		.stabs	"float:t(0,12)=r(0,1);4;0;",128,0,0,0
  24               		.stabs	"double:t(0,13)=r(0,1);4;0;",128,0,0,0
  25               		.stabs	"long double:t(0,14)=r(0,1);4;0;",128,0,0,0
  26               		.stabs	"short _Fract:t(0,15)=r(0,1);1;0;",128,0,0,0
  27               		.stabs	"_Fract:t(0,16)=r(0,1);2;0;",128,0,0,0
  28               		.stabs	"long _Fract:t(0,17)=r(0,1);4;0;",128,0,0,0
  29               		.stabs	"long long _Fract:t(0,18)=r(0,1);8;0;",128,0,0,0
  30               		.stabs	"unsigned short _Fract:t(0,19)=r(0,1);1;0;",128,0,0,0
  31               		.stabs	"unsigned _Fract:t(0,20)=r(0,1);2;0;",128,0,0,0
  32               		.stabs	"unsigned long _Fract:t(0,21)=r(0,1);4;0;",128,0,0,0
  33               		.stabs	"unsigned long long _Fract:t(0,22)=r(0,1);8;0;",128,0,0,0
  34               		.stabs	"_Sat short _Fract:t(0,23)=r(0,1);1;0;",128,0,0,0
  35               		.stabs	"_Sat _Fract:t(0,24)=r(0,1);2;0;",128,0,0,0
  36               		.stabs	"_Sat long _Fract:t(0,25)=r(0,1);4;0;",128,0,0,0
  37               		.stabs	"_Sat long long _Fract:t(0,26)=r(0,1);8;0;",128,0,0,0
  38               		.stabs	"_Sat unsigned short _Fract:t(0,27)=r(0,1);1;0;",128,0,0,0
  39               		.stabs	"_Sat unsigned _Fract:t(0,28)=r(0,1);2;0;",128,0,0,0
  40               		.stabs	"_Sat unsigned long _Fract:t(0,29)=r(0,1);4;0;",128,0,0,0
  41               		.stabs	"_Sat unsigned long long _Fract:t(0,30)=r(0,1);8;0;",128,0,0,0
  42               		.stabs	"short _Accum:t(0,31)=r(0,1);2;0;",128,0,0,0
  43               		.stabs	"_Accum:t(0,32)=r(0,1);4;0;",128,0,0,0
  44               		.stabs	"long _Accum:t(0,33)=r(0,1);8;0;",128,0,0,0
  45               		.stabs	"long long _Accum:t(0,34)=r(0,1);8;0;",128,0,0,0
  46               		.stabs	"unsigned short _Accum:t(0,35)=r(0,1);2;0;",128,0,0,0
  47               		.stabs	"unsigned _Accum:t(0,36)=r(0,1);4;0;",128,0,0,0
  48               		.stabs	"unsigned long _Accum:t(0,37)=r(0,1);8;0;",128,0,0,0
  49               		.stabs	"unsigned long long _Accum:t(0,38)=r(0,1);8;0;",128,0,0,0
  50               		.stabs	"_Sat short _Accum:t(0,39)=r(0,1);2;0;",128,0,0,0
  51               		.stabs	"_Sat _Accum:t(0,40)=r(0,1);4;0;",128,0,0,0
  52               		.stabs	"_Sat long _Accum:t(0,41)=r(0,1);8;0;",128,0,0,0
  53               		.stabs	"_Sat long long _Accum:t(0,42)=r(0,1);8;0;",128,0,0,0
  54               		.stabs	"_Sat unsigned short _Accum:t(0,43)=r(0,1);2;0;",128,0,0,0
  55               		.stabs	"_Sat unsigned _Accum:t(0,44)=r(0,1);4;0;",128,0,0,0
  56               		.stabs	"_Sat unsigned long _Accum:t(0,45)=r(0,1);8;0;",128,0,0,0
  57               		.stabs	"_Sat unsigned long long _Accum:t(0,46)=r(0,1);8;0;",128,0,0,0
GAS LISTING /var/folders/yG/yGnXnnFGGj4hKA71DL26EU+++TI/-Tmp-//ccdybZNV.s 			page 2


  58               		.stabs	"void:t(0,47)=(0,47)",128,0,0,0
  59               		.stabs	"../../../_commonCode/hfModulation/1.00/hfModulation.h",130,0,0,0
  60               		.stabs	"/opt/local/lib/gcc/avr/4.8.2/include/stdint.h",130,0,0,0
  61               		.stabs	"/opt/local/avr/include/stdint.h",130,0,0,0
  62               		.stabs	"int8_t:t(3,1)=(0,10)",128,0,121,0
  63               		.stabs	"uint8_t:t(3,2)=(0,11)",128,0,122,0
  64               		.stabs	"int16_t:t(3,3)=(0,1)",128,0,123,0
  65               		.stabs	"uint16_t:t(3,4)=(0,4)",128,0,124,0
  66               		.stabs	"int32_t:t(3,5)=(0,3)",128,0,125,0
  67               		.stabs	"uint32_t:t(3,6)=(0,5)",128,0,126,0
  68               		.stabs	"int64_t:t(3,7)=(0,6)",128,0,128,0
  69               		.stabs	"uint64_t:t(3,8)=(0,7)",128,0,129,0
  70               		.stabs	"intptr_t:t(3,9)=(3,3)",128,0,142,0
  71               		.stabs	"uintptr_t:t(3,10)=(3,4)",128,0,147,0
  72               		.stabs	"int_least8_t:t(3,11)=(3,1)",128,0,159,0
  73               		.stabs	"uint_least8_t:t(3,12)=(3,2)",128,0,164,0
  74               		.stabs	"int_least16_t:t(3,13)=(3,3)",128,0,169,0
  75               		.stabs	"uint_least16_t:t(3,14)=(3,4)",128,0,174,0
  76               		.stabs	"int_least32_t:t(3,15)=(3,5)",128,0,179,0
  77               		.stabs	"uint_least32_t:t(3,16)=(3,6)",128,0,184,0
  78               		.stabs	"int_least64_t:t(3,17)=(3,7)",128,0,192,0
  79               		.stabs	"uint_least64_t:t(3,18)=(3,8)",128,0,199,0
  80               		.stabs	"int_fast8_t:t(3,19)=(3,1)",128,0,213,0
  81               		.stabs	"uint_fast8_t:t(3,20)=(3,2)",128,0,218,0
  82               		.stabs	"int_fast16_t:t(3,21)=(3,3)",128,0,223,0
  83               		.stabs	"uint_fast16_t:t(3,22)=(3,4)",128,0,228,0
  84               		.stabs	"int_fast32_t:t(3,23)=(3,5)",128,0,233,0
  85               		.stabs	"uint_fast32_t:t(3,24)=(3,6)",128,0,238,0
  86               		.stabs	"int_fast64_t:t(3,25)=(3,7)",128,0,246,0
  87               		.stabs	"uint_fast64_t:t(3,26)=(3,8)",128,0,253,0
  88               		.stabs	"intmax_t:t(3,27)=(3,7)",128,0,273,0
  89               		.stabs	"uintmax_t:t(3,28)=(3,8)",128,0,278,0
  90               		.stabn	162,0,0,0
  91               		.stabn	162,0,0,0
  92               		.stabs	"hfm_t:t(1,1)=(1,2)=B(1,3)=s4desiredSum:(3,3),0,16;maxPower:(3,2),16,8;power:(3,2),24,8;;",
  93               		.stabn	162,0,0,0
  94               		.stabs	"hfm_setPower:F(0,47)",36,0,49,hfm_setPower
  95               		.stabs	"modulator:P(0,48)=*(1,1)",64,0,49,30
  96               		.stabs	"power:P(3,2)",64,0,49,22
  97               	.global	hfm_setPower
  98               		.type	hfm_setPower, @function
  99               	hfm_setPower:
 100               		.stabd	46,0,0
   1:../../../_commonCode/hfModulation/1.00/hfModulation.c **** //high frequency modulation .94
   2:../../../_commonCode/hfModulation/1.00/hfModulation.c **** 
   3:../../../_commonCode/hfModulation/1.00/hfModulation.c **** #include "hfModulation.h"
   4:../../../_commonCode/hfModulation/1.00/hfModulation.c **** 
   5:../../../_commonCode/hfModulation/1.00/hfModulation.c **** //OLD:100% = 255, 0% = 0...
   6:../../../_commonCode/hfModulation/1.00/hfModulation.c **** ///volatile uint8_t  newDesired = 0;
   7:../../../_commonCode/hfModulation/1.00/hfModulation.c **** // 100% = maxPower, 0% = 0... 
   8:../../../_commonCode/hfModulation/1.00/hfModulation.c **** 
   9:../../../_commonCode/hfModulation/1.00/hfModulation.c **** 
  10:../../../_commonCode/hfModulation/1.00/hfModulation.c **** 
  11:../../../_commonCode/hfModulation/1.00/hfModulation.c **** /* Basic algorithm concept:
  12:../../../_commonCode/hfModulation/1.00/hfModulation.c ****  *	///increment numSteps (no longer necessary)
  13:../../../_commonCode/hfModulation/1.00/hfModulation.c ****  * 
  14:../../../_commonCode/hfModulation/1.00/hfModulation.c ****  *	- if the desired value is equal to the current average
GAS LISTING /var/folders/yG/yGnXnnFGGj4hKA71DL26EU+++TI/-Tmp-//ccdybZNV.s 			page 3


  15:../../../_commonCode/hfModulation/1.00/hfModulation.c ****  *		- restart (repeat the same pattern again, the overall average will then be the same...)
  16:../../../_commonCode/hfModulation/1.00/hfModulation.c ****  *		- numSteps = 0
  17:../../../_commonCode/hfModulation/1.00/hfModulation.c ****  *		- runningSum = 0
  18:../../../_commonCode/hfModulation/1.00/hfModulation.c ****  * 
  19:../../../_commonCode/hfModulation/1.00/hfModulation.c ****  * 	- if the desired (desiredSum) value is greater than the current "average" (runningSum) value  /
  20:../../../_commonCode/hfModulation/1.00/hfModulation.c ****  *		///- Increment numSteps
  21:../../../_commonCode/hfModulation/1.00/hfModulation.c ****  *		- turn on the output
  22:../../../_commonCode/hfModulation/1.00/hfModulation.c ****  *		- add the maximum value to the sum to be averaged (runningSum)...
  23:../../../_commonCode/hfModulation/1.00/hfModulation.c ****  *  - if the desired value is less than the current average
  24:../../../_commonCode/hfModulation/1.00/hfModulation.c ****  *		///- Increment numSteps
  25:../../../_commonCode/hfModulation/1.00/hfModulation.c ****  *		- turn off the output
  26:../../../_commonCode/hfModulation/1.00/hfModulation.c ****  *		- add nothing to the runningSum
  27:../../../_commonCode/hfModulation/1.00/hfModulation.c ****  *
  28:../../../_commonCode/hfModulation/1.00/hfModulation.c ****  *
  29:../../../_commonCode/hfModulation/1.00/hfModulation.c ****  *	--CAN BE OPTIMIZED for no divisions and no multiplications (?!)
  30:../../../_commonCode/hfModulation/1.00/hfModulation.c ****  *	
  31:../../../_commonCode/hfModulation/1.00/hfModulation.c ****  *	--NOT PERFECTLY ACCURATE unless called by timer interrupts...
  32:../../../_commonCode/hfModulation/1.00/hfModulation.c ****  */
  33:../../../_commonCode/hfModulation/1.00/hfModulation.c **** 
  34:../../../_commonCode/hfModulation/1.00/hfModulation.c **** //Mainly just for setting up the maxPower (divisor)
  35:../../../_commonCode/hfModulation/1.00/hfModulation.c **** // [can] use hfm_setPower otherwise...
  36:../../../_commonCode/hfModulation/1.00/hfModulation.c **** // can't tell how to get away without using hfm_setup once
  37:../../../_commonCode/hfModulation/1.00/hfModulation.c **** void hfm_setup(hfm_t *modulator, uint8_t power, uint8_t maxPower)
  38:../../../_commonCode/hfModulation/1.00/hfModulation.c **** {
  39:../../../_commonCode/hfModulation/1.00/hfModulation.c **** 	modulator->desiredSum = 0;
  40:../../../_commonCode/hfModulation/1.00/hfModulation.c **** 	modulator->maxPower = maxPower;
  41:../../../_commonCode/hfModulation/1.00/hfModulation.c **** 	hfm_setPower(modulator, power);
  42:../../../_commonCode/hfModulation/1.00/hfModulation.c **** }
  43:../../../_commonCode/hfModulation/1.00/hfModulation.c **** 
  44:../../../_commonCode/hfModulation/1.00/hfModulation.c **** //For the most part, an hfm will have the same divisor all the time... (255)
  45:../../../_commonCode/hfModulation/1.00/hfModulation.c **** // This needs to be set, initially! 
  46:../../../_commonCode/hfModulation/1.00/hfModulation.c **** //   either init it in the hfm variable declaration
  47:../../../_commonCode/hfModulation/1.00/hfModulation.c **** //   or use hfm_setup (ideal)
  48:../../../_commonCode/hfModulation/1.00/hfModulation.c **** // however, sometimes it needs to be variable, thus hfm_setup (above)
  49:../../../_commonCode/hfModulation/1.00/hfModulation.c **** void hfm_setPower(hfm_t	*modulator, uint8_t power)
  50:../../../_commonCode/hfModulation/1.00/hfModulation.c **** {
 101               		.stabn	68,0,50,.LM0-.LFBB1
 102               	.LM0:
 103               	.LFBB1:
 104               	/* prologue: function */
 105               	/* frame size = 0 */
 106               	/* stack size = 0 */
 107               	.L__stack_usage = 0
 108 0000 FC01      		movw r30,r24
  51:../../../_commonCode/hfModulation/1.00/hfModulation.c **** 	//Don't allow power values > 1, otherwise who knows what'll happen...
  52:../../../_commonCode/hfModulation/1.00/hfModulation.c **** 	//(This is probably unnecessary, but whatev)
  53:../../../_commonCode/hfModulation/1.00/hfModulation.c **** 	//It's not, actually, if power's greater than maxPower, the values never reset
  54:../../../_commonCode/hfModulation/1.00/hfModulation.c **** 	// This is trouble, e.g. in heartbeat, where modulator.power is read
  55:../../../_commonCode/hfModulation/1.00/hfModulation.c **** 	if(power <= (modulator->maxPower))
 109               		.stabn	68,0,55,.LM1-.LFBB1
 110               	.LM1:
 111 0002 8281      		ldd r24,Z+2
 112 0004 8617      		cp r24,r22
 113 0006 00F0      		brlo .L2
  56:../../../_commonCode/hfModulation/1.00/hfModulation.c **** 		modulator->power = power;
 114               		.stabn	68,0,56,.LM2-.LFBB1
 115               	.LM2:
GAS LISTING /var/folders/yG/yGnXnnFGGj4hKA71DL26EU+++TI/-Tmp-//ccdybZNV.s 			page 4


 116 0008 6383      		std Z+3,r22
 117 000a 0895      		ret
 118               	.L2:
  57:../../../_commonCode/hfModulation/1.00/hfModulation.c **** 	else
  58:../../../_commonCode/hfModulation/1.00/hfModulation.c **** 		modulator->power = modulator->maxPower;
 119               		.stabn	68,0,58,.LM3-.LFBB1
 120               	.LM3:
 121 000c 8281      		ldd r24,Z+2
 122 000e 8383      		std Z+3,r24
 123 0010 0895      		ret
 124               		.size	hfm_setPower, .-hfm_setPower
 125               	.Lscope1:
 126               		.stabs	"",36,0,0,.Lscope1-.LFBB1
 127               		.stabd	78,0,0
 128               		.stabs	"hfm_setup:F(0,47)",36,0,37,hfm_setup
 129               		.stabs	"modulator:P(0,48)",64,0,37,24
 130               		.stabs	"power:P(3,2)",64,0,37,22
 131               		.stabs	"maxPower:P(3,2)",64,0,37,20
 132               	.global	hfm_setup
 133               		.type	hfm_setup, @function
 134               	hfm_setup:
 135               		.stabd	46,0,0
  38:../../../_commonCode/hfModulation/1.00/hfModulation.c **** 	modulator->desiredSum = 0;
 136               		.stabn	68,0,38,.LM4-.LFBB2
 137               	.LM4:
 138               	.LFBB2:
 139               	/* prologue: function */
 140               	/* frame size = 0 */
 141               	/* stack size = 0 */
 142               	.L__stack_usage = 0
  39:../../../_commonCode/hfModulation/1.00/hfModulation.c **** 	modulator->maxPower = maxPower;
 143               		.stabn	68,0,39,.LM5-.LFBB2
 144               	.LM5:
 145 0012 FC01      		movw r30,r24
 146 0014 1182      		std Z+1,__zero_reg__
 147 0016 1082      		st Z,__zero_reg__
  40:../../../_commonCode/hfModulation/1.00/hfModulation.c **** 	hfm_setPower(modulator, power);
 148               		.stabn	68,0,40,.LM6-.LFBB2
 149               	.LM6:
 150 0018 4283      		std Z+2,r20
  41:../../../_commonCode/hfModulation/1.00/hfModulation.c **** }
 151               		.stabn	68,0,41,.LM7-.LFBB2
 152               	.LM7:
 153 001a 0C94 0000 		jmp hfm_setPower
 154               		.size	hfm_setup, .-hfm_setup
 155               	.Lscope2:
 156               		.stabs	"",36,0,0,.Lscope2-.LFBB2
 157               		.stabd	78,0,0
 158               		.stabs	"hfm_nextOutput:F(3,2)",36,0,73,hfm_nextOutput
 159               		.stabs	"modulator:P(0,48)",64,0,73,30
 160               	.global	hfm_nextOutput
 161               		.type	hfm_nextOutput, @function
 162               	hfm_nextOutput:
 163               		.stabd	46,0,0
  59:../../../_commonCode/hfModulation/1.00/hfModulation.c **** 		
  60:../../../_commonCode/hfModulation/1.00/hfModulation.c **** //	modulator->stepNumber = 0;
  61:../../../_commonCode/hfModulation/1.00/hfModulation.c **** 
GAS LISTING /var/folders/yG/yGnXnnFGGj4hKA71DL26EU+++TI/-Tmp-//ccdybZNV.s 			page 5


  62:../../../_commonCode/hfModulation/1.00/hfModulation.c **** //0.94 This is just a test... It should be OK, but it hasn't been
  63:../../../_commonCode/hfModulation/1.00/hfModulation.c **** //     thoroughly-thought-out... (removal of these)
  64:../../../_commonCode/hfModulation/1.00/hfModulation.c **** // CAUSES BADNESS.
  65:../../../_commonCode/hfModulation/1.00/hfModulation.c **** //0.94-2 this should no longer be necessary... (runningSum is no more)
  66:../../../_commonCode/hfModulation/1.00/hfModulation.c **** //	modulator->runningSum = 0;
  67:../../../_commonCode/hfModulation/1.00/hfModulation.c **** 	//0.94-2 should also no longer be necessary:
  68:../../../_commonCode/hfModulation/1.00/hfModulation.c **** //	modulator->desiredSum = 0;
  69:../../../_commonCode/hfModulation/1.00/hfModulation.c **** }
  70:../../../_commonCode/hfModulation/1.00/hfModulation.c **** 
  71:../../../_commonCode/hfModulation/1.00/hfModulation.c **** //Returns 0 if the "output" should be "off" in this cycle
  72:../../../_commonCode/hfModulation/1.00/hfModulation.c **** //		  1 if the "output" should be "on"  in this cycle
  73:../../../_commonCode/hfModulation/1.00/hfModulation.c **** uint8_t hfm_nextOutput(hfm_t *modulator)
  74:../../../_commonCode/hfModulation/1.00/hfModulation.c **** {
 164               		.stabn	68,0,74,.LM8-.LFBB3
 165               	.LM8:
 166               	.LFBB3:
 167               	/* prologue: function */
 168               	/* frame size = 0 */
 169               	/* stack size = 0 */
 170               	.L__stack_usage = 0
 171 001e FC01      		movw r30,r24
  75:../../../_commonCode/hfModulation/1.00/hfModulation.c **** 	uint8_t toReturn;
  76:../../../_commonCode/hfModulation/1.00/hfModulation.c **** 	
  77:../../../_commonCode/hfModulation/1.00/hfModulation.c **** 	//The first time, this will be == desired*1... 
  78:../../../_commonCode/hfModulation/1.00/hfModulation.c **** 	// (and runningSum will be zero)
  79:../../../_commonCode/hfModulation/1.00/hfModulation.c **** 	//(modulator->desiredSum) += (modulator->power);
  80:../../../_commonCode/hfModulation/1.00/hfModulation.c **** 
  81:../../../_commonCode/hfModulation/1.00/hfModulation.c **** 
  82:../../../_commonCode/hfModulation/1.00/hfModulation.c **** 	//The first time, since runningsum == 0,
  83:../../../_commonCode/hfModulation/1.00/hfModulation.c **** 	//	if desiredSum == 0 we else...
  84:../../../_commonCode/hfModulation/1.00/hfModulation.c **** 	//		clr == good
  85:../../../_commonCode/hfModulation/1.00/hfModulation.c **** 	// if desiredSum > 0 we if...
  86:../../../_commonCode/hfModulation/1.00/hfModulation.c **** 	//		set == good
  87:../../../_commonCode/hfModulation/1.00/hfModulation.c **** 	
  88:../../../_commonCode/hfModulation/1.00/hfModulation.c **** 	// IF desired == 255, we want it never to clr...
  89:../../../_commonCode/hfModulation/1.00/hfModulation.c **** 	//		but running will be 0 the first time
  90:../../../_commonCode/hfModulation/1.00/hfModulation.c **** 	//		and we'll therefore if... set == good
  91:../../../_commonCode/hfModulation/1.00/hfModulation.c **** 	//		and later we'll runningSum == desiredSum (above) 
  92:../../../_commonCode/hfModulation/1.00/hfModulation.c **** 	//    and reset and if again
  93:../../../_commonCode/hfModulation/1.00/hfModulation.c **** 	if(modulator->desiredSum > 0)
 172               		.stabn	68,0,93,.LM9-.LFBB3
 173               	.LM9:
 174 0020 8081      		ld r24,Z
 175 0022 9181      		ldd r25,Z+1
 176 0024 1816      		cp __zero_reg__,r24
 177 0026 1906      		cpc __zero_reg__,r25
 178 0028 04F4      		brge .L8
  94:../../../_commonCode/hfModulation/1.00/hfModulation.c **** 	{
  95:../../../_commonCode/hfModulation/1.00/hfModulation.c **** 		(modulator->desiredSum) -= (modulator->maxPower); //0xff;
 179               		.stabn	68,0,95,.LM10-.LFBB3
 180               	.LM10:
 181 002a 8081      		ld r24,Z
 182 002c 9181      		ldd r25,Z+1
 183 002e 2281      		ldd r18,Z+2
 184 0030 821B      		sub r24,r18
 185 0032 9109      		sbc r25,__zero_reg__
 186 0034 9183      		std Z+1,r25
GAS LISTING /var/folders/yG/yGnXnnFGGj4hKA71DL26EU+++TI/-Tmp-//ccdybZNV.s 			page 6


 187 0036 8083      		st Z,r24
  96:../../../_commonCode/hfModulation/1.00/hfModulation.c **** 		toReturn = TRUE;
 188               		.stabn	68,0,96,.LM11-.LFBB3
 189               	.LM11:
 190 0038 81E0      		ldi r24,lo8(1)
 191 003a 00C0      		rjmp .L7
 192               	.L8:
  97:../../../_commonCode/hfModulation/1.00/hfModulation.c **** 	}
  98:../../../_commonCode/hfModulation/1.00/hfModulation.c **** 	else	//avg == desired is handled at the start... (except 0-case which works here too)
  99:../../../_commonCode/hfModulation/1.00/hfModulation.c **** 	{
 100:../../../_commonCode/hfModulation/1.00/hfModulation.c **** 		//Don't modify runningSum, wait until desiredSum catches up...
 101:../../../_commonCode/hfModulation/1.00/hfModulation.c **** 		toReturn = FALSE;
 193               		.stabn	68,0,101,.LM12-.LFBB3
 194               	.LM12:
 195 003c 80E0      		ldi r24,0
 196               	.L7:
 102:../../../_commonCode/hfModulation/1.00/hfModulation.c **** 	}
 103:../../../_commonCode/hfModulation/1.00/hfModulation.c **** 	
 104:../../../_commonCode/hfModulation/1.00/hfModulation.c **** 	(modulator->desiredSum) += (modulator->power);
 197               		.stabn	68,0,104,.LM13-.LFBB3
 198               	.LM13:
 199 003e 2081      		ld r18,Z
 200 0040 3181      		ldd r19,Z+1
 201 0042 9381      		ldd r25,Z+3
 202 0044 290F      		add r18,r25
 203 0046 311D      		adc r19,__zero_reg__
 204 0048 3183      		std Z+1,r19
 205 004a 2083      		st Z,r18
 105:../../../_commonCode/hfModulation/1.00/hfModulation.c **** 
 106:../../../_commonCode/hfModulation/1.00/hfModulation.c **** 	
 107:../../../_commonCode/hfModulation/1.00/hfModulation.c **** 	
 108:../../../_commonCode/hfModulation/1.00/hfModulation.c **** //	(modulator->stepNumber)++;
 109:../../../_commonCode/hfModulation/1.00/hfModulation.c **** /*
 110:../../../_commonCode/hfModulation/1.00/hfModulation.c **** 	//Restart the cycle if the output average == the desired
 111:../../../_commonCode/hfModulation/1.00/hfModulation.c **** 	if(modulator->runningSum == modulator->desiredSum)
 112:../../../_commonCode/hfModulation/1.00/hfModulation.c **** 	{
 113:../../../_commonCode/hfModulation/1.00/hfModulation.c **** 		//Handled below...
 114:../../../_commonCode/hfModulation/1.00/hfModulation.c **** //		modulator->stepNumber = 0;
 115:../../../_commonCode/hfModulation/1.00/hfModulation.c **** 		modulator->runningSum = 0;
 116:../../../_commonCode/hfModulation/1.00/hfModulation.c **** 		modulator->desiredSum = 0;
 117:../../../_commonCode/hfModulation/1.00/hfModulation.c **** 	}
 118:../../../_commonCode/hfModulation/1.00/hfModulation.c **** */	
 119:../../../_commonCode/hfModulation/1.00/hfModulation.c **** 	return toReturn;
 120:../../../_commonCode/hfModulation/1.00/hfModulation.c **** }
 206               		.stabn	68,0,120,.LM14-.LFBB3
 207               	.LM14:
 208 004c 0895      		ret
 209               		.size	hfm_nextOutput, .-hfm_nextOutput
 210               		.stabs	"toReturn:r(3,2)",64,0,75,24
 211               		.stabn	192,0,0,.LFBB3-.LFBB3
 212               		.stabn	224,0,0,.Lscope3-.LFBB3
 213               	.Lscope3:
 214               		.stabs	"",36,0,0,.Lscope3-.LFBB3
 215               		.stabd	78,0,0
 216               		.stabs	"",100,0,0,.Letext0
 217               	.Letext0:
 218               		.ident	"GCC: (GNU) 4.8.2"
GAS LISTING /var/folders/yG/yGnXnnFGGj4hKA71DL26EU+++TI/-Tmp-//ccdybZNV.s 			page 7


GAS LISTING /var/folders/yG/yGnXnnFGGj4hKA71DL26EU+++TI/-Tmp-//ccdybZNV.s 			page 8


DEFINED SYMBOLS
                            *ABS*:00000000 hfModulation.c
/var/folders/yG/yGnXnnFGGj4hKA71DL26EU+++TI/-Tmp-//ccdybZNV.s:2      *ABS*:0000003e __SP_H__
/var/folders/yG/yGnXnnFGGj4hKA71DL26EU+++TI/-Tmp-//ccdybZNV.s:3      *ABS*:0000003d __SP_L__
/var/folders/yG/yGnXnnFGGj4hKA71DL26EU+++TI/-Tmp-//ccdybZNV.s:4      *ABS*:0000003f __SREG__
/var/folders/yG/yGnXnnFGGj4hKA71DL26EU+++TI/-Tmp-//ccdybZNV.s:5      *ABS*:00000000 __tmp_reg__
/var/folders/yG/yGnXnnFGGj4hKA71DL26EU+++TI/-Tmp-//ccdybZNV.s:6      *ABS*:00000001 __zero_reg__
/var/folders/yG/yGnXnnFGGj4hKA71DL26EU+++TI/-Tmp-//ccdybZNV.s:99     .text:00000000 hfm_setPower
/var/folders/yG/yGnXnnFGGj4hKA71DL26EU+++TI/-Tmp-//ccdybZNV.s:134    .text:00000012 hfm_setup
/var/folders/yG/yGnXnnFGGj4hKA71DL26EU+++TI/-Tmp-//ccdybZNV.s:162    .text:0000001e hfm_nextOutput

NO UNDEFINED SYMBOLS
