GAS LISTING /var/folders/yG/yGnXnnFGGj4hKA71DL26EU+++TI/-Tmp-//ccKZ2F26.s 			page 1


   1               		.file	"coordStuff.c"
   2               	__SP_H__ = 0x3e
   3               	__SP_L__ = 0x3d
   4               	__SREG__ = 0x3f
   5               	__tmp_reg__ = 0
   6               	__zero_reg__ = 1
   7               		.stabs	"/Users/meh/_avrProjects/LCDdirectLVDS/68-backToLTN/",100,0,2,.Ltext0
   8               		.stabs	"_commonCode_localized/coordStuff/0.90/coordStuff.c",100,0,2,.Ltext0
   9               		.text
  10               	.Ltext0:
  11               		.stabs	"gcc2_compiled.",60,0,0,0
  12               		.stabs	"int:t(0,1)=r(0,1);-32768;32767;",128,0,0,0
  13               		.stabs	"char:t(0,2)=@s8;r(0,2);0;255;",128,0,0,0
  14               		.stabs	"long int:t(0,3)=@s32;r(0,3);020000000000;017777777777;",128,0,0,0
  15               		.stabs	"unsigned int:t(0,4)=r(0,4);0;0177777;",128,0,0,0
  16               		.stabs	"long unsigned int:t(0,5)=@s32;r(0,5);0;037777777777;",128,0,0,0
  17               		.stabs	"long long int:t(0,6)=@s64;r(0,6);01000000000000000000000;0777777777777777777777;",128,0,0,
  18               		.stabs	"long long unsigned int:t(0,7)=@s64;r(0,7);0;01777777777777777777777;",128,0,0,0
  19               		.stabs	"short int:t(0,8)=r(0,8);-32768;32767;",128,0,0,0
  20               		.stabs	"short unsigned int:t(0,9)=r(0,9);0;0177777;",128,0,0,0
  21               		.stabs	"signed char:t(0,10)=@s8;r(0,10);-128;127;",128,0,0,0
  22               		.stabs	"unsigned char:t(0,11)=@s8;r(0,11);0;255;",128,0,0,0
  23               		.stabs	"float:t(0,12)=r(0,1);4;0;",128,0,0,0
  24               		.stabs	"double:t(0,13)=r(0,1);4;0;",128,0,0,0
  25               		.stabs	"long double:t(0,14)=r(0,1);4;0;",128,0,0,0
  26               		.stabs	"short _Fract:t(0,15)=r(0,1);1;0;",128,0,0,0
  27               		.stabs	"_Fract:t(0,16)=r(0,1);2;0;",128,0,0,0
  28               		.stabs	"long _Fract:t(0,17)=r(0,1);4;0;",128,0,0,0
  29               		.stabs	"long long _Fract:t(0,18)=r(0,1);8;0;",128,0,0,0
  30               		.stabs	"unsigned short _Fract:t(0,19)=r(0,1);1;0;",128,0,0,0
  31               		.stabs	"unsigned _Fract:t(0,20)=r(0,1);2;0;",128,0,0,0
  32               		.stabs	"unsigned long _Fract:t(0,21)=r(0,1);4;0;",128,0,0,0
  33               		.stabs	"unsigned long long _Fract:t(0,22)=r(0,1);8;0;",128,0,0,0
  34               		.stabs	"_Sat short _Fract:t(0,23)=r(0,1);1;0;",128,0,0,0
  35               		.stabs	"_Sat _Fract:t(0,24)=r(0,1);2;0;",128,0,0,0
  36               		.stabs	"_Sat long _Fract:t(0,25)=r(0,1);4;0;",128,0,0,0
  37               		.stabs	"_Sat long long _Fract:t(0,26)=r(0,1);8;0;",128,0,0,0
  38               		.stabs	"_Sat unsigned short _Fract:t(0,27)=r(0,1);1;0;",128,0,0,0
  39               		.stabs	"_Sat unsigned _Fract:t(0,28)=r(0,1);2;0;",128,0,0,0
  40               		.stabs	"_Sat unsigned long _Fract:t(0,29)=r(0,1);4;0;",128,0,0,0
  41               		.stabs	"_Sat unsigned long long _Fract:t(0,30)=r(0,1);8;0;",128,0,0,0
  42               		.stabs	"short _Accum:t(0,31)=r(0,1);2;0;",128,0,0,0
  43               		.stabs	"_Accum:t(0,32)=r(0,1);4;0;",128,0,0,0
  44               		.stabs	"long _Accum:t(0,33)=r(0,1);8;0;",128,0,0,0
  45               		.stabs	"long long _Accum:t(0,34)=r(0,1);8;0;",128,0,0,0
  46               		.stabs	"unsigned short _Accum:t(0,35)=r(0,1);2;0;",128,0,0,0
  47               		.stabs	"unsigned _Accum:t(0,36)=r(0,1);4;0;",128,0,0,0
  48               		.stabs	"unsigned long _Accum:t(0,37)=r(0,1);8;0;",128,0,0,0
  49               		.stabs	"unsigned long long _Accum:t(0,38)=r(0,1);8;0;",128,0,0,0
  50               		.stabs	"_Sat short _Accum:t(0,39)=r(0,1);2;0;",128,0,0,0
  51               		.stabs	"_Sat _Accum:t(0,40)=r(0,1);4;0;",128,0,0,0
  52               		.stabs	"_Sat long _Accum:t(0,41)=r(0,1);8;0;",128,0,0,0
  53               		.stabs	"_Sat long long _Accum:t(0,42)=r(0,1);8;0;",128,0,0,0
  54               		.stabs	"_Sat unsigned short _Accum:t(0,43)=r(0,1);2;0;",128,0,0,0
  55               		.stabs	"_Sat unsigned _Accum:t(0,44)=r(0,1);4;0;",128,0,0,0
  56               		.stabs	"_Sat unsigned long _Accum:t(0,45)=r(0,1);8;0;",128,0,0,0
  57               		.stabs	"_Sat unsigned long long _Accum:t(0,46)=r(0,1);8;0;",128,0,0,0
GAS LISTING /var/folders/yG/yGnXnnFGGj4hKA71DL26EU+++TI/-Tmp-//ccKZ2F26.s 			page 2


  58               		.stabs	"void:t(0,47)=(0,47)",128,0,0,0
  59               		.stabs	"./_commonCode_localized/coordStuff/0.90/coordStuff.h",130,0,0,0
  60               		.stabs	"/opt/local/avr/include/inttypes.h",130,0,0,0
  61               		.stabs	"/opt/local/lib/gcc/avr/4.8.2/include/stdint.h",130,0,0,0
  62               		.stabs	"/opt/local/avr/include/stdint.h",130,0,0,0
  63               		.stabs	"int8_t:t(4,1)=(0,10)",128,0,121,0
  64               		.stabs	"uint8_t:t(4,2)=(0,11)",128,0,122,0
  65               		.stabs	"int16_t:t(4,3)=(0,1)",128,0,123,0
  66               		.stabs	"uint16_t:t(4,4)=(0,4)",128,0,124,0
  67               		.stabs	"int32_t:t(4,5)=(0,3)",128,0,125,0
  68               		.stabs	"uint32_t:t(4,6)=(0,5)",128,0,126,0
  69               		.stabs	"int64_t:t(4,7)=(0,6)",128,0,128,0
  70               		.stabs	"uint64_t:t(4,8)=(0,7)",128,0,129,0
  71               		.stabs	"intptr_t:t(4,9)=(4,3)",128,0,142,0
  72               		.stabs	"uintptr_t:t(4,10)=(4,4)",128,0,147,0
  73               		.stabs	"int_least8_t:t(4,11)=(4,1)",128,0,159,0
  74               		.stabs	"uint_least8_t:t(4,12)=(4,2)",128,0,164,0
  75               		.stabs	"int_least16_t:t(4,13)=(4,3)",128,0,169,0
  76               		.stabs	"uint_least16_t:t(4,14)=(4,4)",128,0,174,0
  77               		.stabs	"int_least32_t:t(4,15)=(4,5)",128,0,179,0
  78               		.stabs	"uint_least32_t:t(4,16)=(4,6)",128,0,184,0
  79               		.stabs	"int_least64_t:t(4,17)=(4,7)",128,0,192,0
  80               		.stabs	"uint_least64_t:t(4,18)=(4,8)",128,0,199,0
  81               		.stabs	"int_fast8_t:t(4,19)=(4,1)",128,0,213,0
  82               		.stabs	"uint_fast8_t:t(4,20)=(4,2)",128,0,218,0
  83               		.stabs	"int_fast16_t:t(4,21)=(4,3)",128,0,223,0
  84               		.stabs	"uint_fast16_t:t(4,22)=(4,4)",128,0,228,0
  85               		.stabs	"int_fast32_t:t(4,23)=(4,5)",128,0,233,0
  86               		.stabs	"uint_fast32_t:t(4,24)=(4,6)",128,0,238,0
  87               		.stabs	"int_fast64_t:t(4,25)=(4,7)",128,0,246,0
  88               		.stabs	"uint_fast64_t:t(4,26)=(4,8)",128,0,253,0
  89               		.stabs	"intmax_t:t(4,27)=(4,7)",128,0,273,0
  90               		.stabs	"uintmax_t:t(4,28)=(4,8)",128,0,278,0
  91               		.stabn	162,0,0,0
  92               		.stabn	162,0,0,0
  93               		.stabs	"int_farptr_t:t(2,1)=(4,5)",128,0,77,0
  94               		.stabs	"uint_farptr_t:t(2,2)=(4,6)",128,0,81,0
  95               		.stabn	162,0,0,0
  96               		.stabs	"coord_t:t(1,1)=(4,5)",128,0,31,0
  97               		.stabs	"ucoord_t:t(1,2)=(4,6)",128,0,38,0
  98               		.stabn	162,0,0,0
  99               		.stabs	"coord_abs:F(1,1)",36,0,16,coord_abs
 100               		.stabs	"value:P(1,1)",64,0,16,22
 101               	.global	coord_abs
 102               		.type	coord_abs, @function
 103               	coord_abs:
 104               		.stabd	46,0,0
   1:_commonCode_localized/coordStuff/0.90/coordStuff.c **** /* mehPL:
   2:_commonCode_localized/coordStuff/0.90/coordStuff.c ****  *    This is Open Source, but NOT GPL. I call it mehPL.
   3:_commonCode_localized/coordStuff/0.90/coordStuff.c ****  *    I'm not too fond of long licenses at the top of the file.
   4:_commonCode_localized/coordStuff/0.90/coordStuff.c ****  *    Please see the bottom.
   5:_commonCode_localized/coordStuff/0.90/coordStuff.c ****  *    Enjoy!
   6:_commonCode_localized/coordStuff/0.90/coordStuff.c ****  */
   7:_commonCode_localized/coordStuff/0.90/coordStuff.c **** 
   8:_commonCode_localized/coordStuff/0.90/coordStuff.c **** 
   9:_commonCode_localized/coordStuff/0.90/coordStuff.c **** 
  10:_commonCode_localized/coordStuff/0.90/coordStuff.c **** 
GAS LISTING /var/folders/yG/yGnXnnFGGj4hKA71DL26EU+++TI/-Tmp-//ccKZ2F26.s 			page 3


  11:_commonCode_localized/coordStuff/0.90/coordStuff.c **** //coordStuff.c 0.90
  12:_commonCode_localized/coordStuff/0.90/coordStuff.c **** 
  13:_commonCode_localized/coordStuff/0.90/coordStuff.c **** #include _COORDSTUFF_HEADER_
  14:_commonCode_localized/coordStuff/0.90/coordStuff.c **** 
  15:_commonCode_localized/coordStuff/0.90/coordStuff.c **** 
  16:_commonCode_localized/coordStuff/0.90/coordStuff.c **** coord_t coord_abs(coord_t value)
  17:_commonCode_localized/coordStuff/0.90/coordStuff.c **** {
 105               		.stabn	68,0,17,.LM0-.LFBB1
 106               	.LM0:
 107               	.LFBB1:
 108               	/* prologue: function */
 109               	/* frame size = 0 */
 110               	/* stack size = 0 */
 111               	.L__stack_usage = 0
  18:_commonCode_localized/coordStuff/0.90/coordStuff.c ****    //#define coord_abs(value) (((value) >= 0) ? (value) : -(value))
  19:_commonCode_localized/coordStuff/0.90/coordStuff.c ****    //Can return 0
  20:_commonCode_localized/coordStuff/0.90/coordStuff.c ****    if(value >= 0)
 112               		.stabn	68,0,20,.LM1-.LFBB1
 113               	.LM1:
 114 0000 97FF      		sbrs r25,7
 115 0002 00C0      		rjmp .L2
  21:_commonCode_localized/coordStuff/0.90/coordStuff.c ****       return value;
  22:_commonCode_localized/coordStuff/0.90/coordStuff.c ****    else if(value < -(INT32_MAX)) //because INT32_MIN < -(INT32_MAX)
 116               		.stabn	68,0,22,.LM2-.LFBB1
 117               	.LM2:
 118 0004 6115      		cp r22,__zero_reg__
 119 0006 7105      		cpc r23,__zero_reg__
 120 0008 8105      		cpc r24,__zero_reg__
 121 000a 20E8      		ldi r18,-128
 122 000c 9207      		cpc r25,r18
 123 000e 01F0      		breq .L4
  23:_commonCode_localized/coordStuff/0.90/coordStuff.c ****       return INT32_MAX;
  24:_commonCode_localized/coordStuff/0.90/coordStuff.c ****    else  // -INT32_MAX < value < 0
  25:_commonCode_localized/coordStuff/0.90/coordStuff.c ****       return -value;
 124               		.stabn	68,0,25,.LM3-.LFBB1
 125               	.LM3:
 126 0010 9095      		com r25
 127 0012 8095      		com r24
 128 0014 7095      		com r23
 129 0016 6195      		neg r22
 130 0018 7F4F      		sbci r23,lo8(-1)
 131 001a 8F4F      		sbci r24,lo8(-1)
 132 001c 9F4F      		sbci r25,lo8(-1)
 133 001e 0895      		ret
 134               	.L4:
  23:_commonCode_localized/coordStuff/0.90/coordStuff.c ****       return INT32_MAX;
 135               		.stabn	68,0,23,.LM4-.LFBB1
 136               	.LM4:
 137 0020 6FEF      		ldi r22,lo8(-1)
 138 0022 7FEF      		ldi r23,lo8(-1)
 139 0024 8FEF      		ldi r24,lo8(-1)
 140 0026 9FE7      		ldi r25,lo8(127)
 141               	.L2:
  26:_commonCode_localized/coordStuff/0.90/coordStuff.c **** }
 142               		.stabn	68,0,26,.LM5-.LFBB1
 143               	.LM5:
 144 0028 0895      		ret
GAS LISTING /var/folders/yG/yGnXnnFGGj4hKA71DL26EU+++TI/-Tmp-//ccKZ2F26.s 			page 4


 145               		.size	coord_abs, .-coord_abs
 146               	.Lscope1:
 147               		.stabs	"",36,0,0,.Lscope1-.LFBB1
 148               		.stabd	78,0,0
 149               		.stabs	"coord_max:F(1,1)",36,0,30,coord_max
 150               		.stabs	"value2:P(1,1)",64,0,30,18
 151               	.global	coord_max
 152               		.type	coord_max, @function
 153               	coord_max:
 154               		.stabd	46,0,0
  27:_commonCode_localized/coordStuff/0.90/coordStuff.c **** 
  28:_commonCode_localized/coordStuff/0.90/coordStuff.c **** 
  29:_commonCode_localized/coordStuff/0.90/coordStuff.c **** #if (!defined(COORD_MAX_UNUSED) || !COORD_MAX_UNUSED)
  30:_commonCode_localized/coordStuff/0.90/coordStuff.c **** coord_t coord_max(coord_t value1, coord_t value2)
  31:_commonCode_localized/coordStuff/0.90/coordStuff.c **** {
 155               		.stabn	68,0,31,.LM6-.LFBB2
 156               	.LM6:
 157               	.LFBB2:
 158               	/* prologue: function */
 159               	/* frame size = 0 */
 160               	/* stack size = 0 */
 161               	.L__stack_usage = 0
 162 002a 6217      		cp r22,r18
 163 002c 7307      		cpc r23,r19
 164 002e 8407      		cpc r24,r20
 165 0030 9507      		cpc r25,r21
 166 0032 04F4      		brge .L7
 167 0034 CA01      		movw r24,r20
 168 0036 B901      		movw r22,r18
 169               	.L7:
  32:_commonCode_localized/coordStuff/0.90/coordStuff.c ****    if(value1 > value2)
  33:_commonCode_localized/coordStuff/0.90/coordStuff.c ****       return value1;
  34:_commonCode_localized/coordStuff/0.90/coordStuff.c ****    else
  35:_commonCode_localized/coordStuff/0.90/coordStuff.c ****       return value2;
  36:_commonCode_localized/coordStuff/0.90/coordStuff.c **** }
 170               		.stabn	68,0,36,.LM7-.LFBB2
 171               	.LM7:
 172 0038 0895      		ret
 173               		.size	coord_max, .-coord_max
 174               	.Lscope2:
 175               		.stabs	"",36,0,0,.Lscope2-.LFBB2
 176               		.stabd	78,0,0
 177               		.stabs	"coord_sign:F(4,1)",36,0,40,coord_sign
 178               		.stabs	"value:P(1,1)",64,0,40,22
 179               	.global	coord_sign
 180               		.type	coord_sign, @function
 181               	coord_sign:
 182               		.stabd	46,0,0
  37:_commonCode_localized/coordStuff/0.90/coordStuff.c **** #endif
  38:_commonCode_localized/coordStuff/0.90/coordStuff.c **** 
  39:_commonCode_localized/coordStuff/0.90/coordStuff.c **** #if (!defined(COORD_SIGN_UNUSED) || !COORD_SIGN_UNUSED)
  40:_commonCode_localized/coordStuff/0.90/coordStuff.c **** int8_t coord_sign(coord_t value)
  41:_commonCode_localized/coordStuff/0.90/coordStuff.c **** {
 183               		.stabn	68,0,41,.LM8-.LFBB3
 184               	.LM8:
 185               	.LFBB3:
 186               	/* prologue: function */
GAS LISTING /var/folders/yG/yGnXnnFGGj4hKA71DL26EU+++TI/-Tmp-//ccKZ2F26.s 			page 5


 187               	/* frame size = 0 */
 188               	/* stack size = 0 */
 189               	.L__stack_usage = 0
  42:_commonCode_localized/coordStuff/0.90/coordStuff.c ****    //#define coord_sign(value) 
  43:_commonCode_localized/coordStuff/0.90/coordStuff.c ****    //  (value ? ((value<0) ? -value : value) : 0)
  44:_commonCode_localized/coordStuff/0.90/coordStuff.c ****    if(value > 0)
 190               		.stabn	68,0,44,.LM9-.LFBB3
 191               	.LM9:
 192 003a 1616      		cp __zero_reg__,r22
 193 003c 1706      		cpc __zero_reg__,r23
 194 003e 1806      		cpc __zero_reg__,r24
 195 0040 1906      		cpc __zero_reg__,r25
 196 0042 04F0      		brlt .L11
  45:_commonCode_localized/coordStuff/0.90/coordStuff.c ****       return 1;
  46:_commonCode_localized/coordStuff/0.90/coordStuff.c ****    else if(value < 0)
 197               		.stabn	68,0,46,.LM10-.LFBB3
 198               	.LM10:
 199 0044 21E0      		ldi r18,lo8(1)
 200 0046 672B      		or r22,r23
 201 0048 682B      		or r22,r24
 202 004a 692B      		or r22,r25
 203 004c 01F4      		brne .L10
 204 004e 20E0      		ldi r18,0
 205               	.L10:
 206 0050 822F      		mov r24,r18
 207 0052 8195      		neg r24
 208 0054 0895      		ret
 209               	.L11:
  45:_commonCode_localized/coordStuff/0.90/coordStuff.c ****       return 1;
 210               		.stabn	68,0,45,.LM11-.LFBB3
 211               	.LM11:
 212 0056 81E0      		ldi r24,lo8(1)
  47:_commonCode_localized/coordStuff/0.90/coordStuff.c ****       return -1;
  48:_commonCode_localized/coordStuff/0.90/coordStuff.c ****    else
  49:_commonCode_localized/coordStuff/0.90/coordStuff.c ****       return 0;
  50:_commonCode_localized/coordStuff/0.90/coordStuff.c **** }
 213               		.stabn	68,0,50,.LM12-.LFBB3
 214               	.LM12:
 215 0058 0895      		ret
 216               		.size	coord_sign, .-coord_sign
 217               	.Lscope3:
 218               		.stabs	"",36,0,0,.Lscope3-.LFBB3
 219               		.stabd	78,0,0
 220               		.stabs	"coord_limit:F(4,1)",36,0,63,coord_limit
 221               		.stabs	"min:P(1,1)",64,0,63,22
 222               		.stabs	"val:P(0,48)=*(1,1)",64,0,63,30
 223               		.stabs	"max:P(1,1)",64,0,63,16
 224               	.global	coord_limit
 225               		.type	coord_limit, @function
 226               	coord_limit:
 227               		.stabd	46,0,0
  51:_commonCode_localized/coordStuff/0.90/coordStuff.c **** #endif
  52:_commonCode_localized/coordStuff/0.90/coordStuff.c **** 
  53:_commonCode_localized/coordStuff/0.90/coordStuff.c **** 
  54:_commonCode_localized/coordStuff/0.90/coordStuff.c **** //@@@ It would probably be wiser to just do one limit function
  55:_commonCode_localized/coordStuff/0.90/coordStuff.c **** //    with a larger datatype...
  56:_commonCode_localized/coordStuff/0.90/coordStuff.c **** //    (unless selectively compiling these)
GAS LISTING /var/folders/yG/yGnXnnFGGj4hKA71DL26EU+++TI/-Tmp-//ccKZ2F26.s 			page 6


  57:_commonCode_localized/coordStuff/0.90/coordStuff.c **** //    since most cases (?) are one-time-only tests
  58:_commonCode_localized/coordStuff/0.90/coordStuff.c **** //    that needn't be particularly fast...?
  59:_commonCode_localized/coordStuff/0.90/coordStuff.c **** //    (what about limit-handling in gotoStepping?)
  60:_commonCode_localized/coordStuff/0.90/coordStuff.c **** 
  61:_commonCode_localized/coordStuff/0.90/coordStuff.c **** //Returns -1 or +1 if limited to the min or max, respectively
  62:_commonCode_localized/coordStuff/0.90/coordStuff.c **** //Returns 0 if not limited
  63:_commonCode_localized/coordStuff/0.90/coordStuff.c **** int8_t coord_limit(coord_t min, coord_t *val, coord_t max)
  64:_commonCode_localized/coordStuff/0.90/coordStuff.c **** {
 228               		.stabn	68,0,64,.LM13-.LFBB4
 229               	.LM13:
 230               	.LFBB4:
 231 005a CF92      		push r12
 232 005c DF92      		push r13
 233 005e EF92      		push r14
 234 0060 FF92      		push r15
 235 0062 0F93      		push r16
 236 0064 1F93      		push r17
 237               	/* prologue: function */
 238               	/* frame size = 0 */
 239               	/* stack size = 6 */
 240               	.L__stack_usage = 6
 241 0066 FA01      		movw r30,r20
  65:_commonCode_localized/coordStuff/0.90/coordStuff.c **** 	if(*val < min)
 242               		.stabn	68,0,65,.LM14-.LFBB4
 243               	.LM14:
 244 0068 C080      		ld r12,Z
 245 006a D180      		ldd r13,Z+1
 246 006c E280      		ldd r14,Z+2
 247 006e F380      		ldd r15,Z+3
 248 0070 C616      		cp r12,r22
 249 0072 D706      		cpc r13,r23
 250 0074 E806      		cpc r14,r24
 251 0076 F906      		cpc r15,r25
 252 0078 04F4      		brge .L13
  66:_commonCode_localized/coordStuff/0.90/coordStuff.c **** 	{
  67:_commonCode_localized/coordStuff/0.90/coordStuff.c **** 		*val = min;
 253               		.stabn	68,0,67,.LM15-.LFBB4
 254               	.LM15:
 255 007a 6083      		st Z,r22
 256 007c 7183      		std Z+1,r23
 257 007e 8283      		std Z+2,r24
 258 0080 9383      		std Z+3,r25
  68:_commonCode_localized/coordStuff/0.90/coordStuff.c **** 		return -1;
 259               		.stabn	68,0,68,.LM16-.LFBB4
 260               	.LM16:
 261 0082 8FEF      		ldi r24,lo8(-1)
 262 0084 00C0      		rjmp .L14
 263               	.L13:
  69:_commonCode_localized/coordStuff/0.90/coordStuff.c **** 	}
  70:_commonCode_localized/coordStuff/0.90/coordStuff.c **** 	else if(*val > max)
 264               		.stabn	68,0,70,.LM17-.LFBB4
 265               	.LM17:
 266 0086 0C15      		cp r16,r12
 267 0088 1D05      		cpc r17,r13
 268 008a 2E05      		cpc r18,r14
 269 008c 3F05      		cpc r19,r15
 270 008e 04F4      		brge .L15
GAS LISTING /var/folders/yG/yGnXnnFGGj4hKA71DL26EU+++TI/-Tmp-//ccKZ2F26.s 			page 7


  71:_commonCode_localized/coordStuff/0.90/coordStuff.c **** 	{
  72:_commonCode_localized/coordStuff/0.90/coordStuff.c **** 		*val = max;
 271               		.stabn	68,0,72,.LM18-.LFBB4
 272               	.LM18:
 273 0090 0083      		st Z,r16
 274 0092 1183      		std Z+1,r17
 275 0094 2283      		std Z+2,r18
 276 0096 3383      		std Z+3,r19
  73:_commonCode_localized/coordStuff/0.90/coordStuff.c **** 		return 1;
 277               		.stabn	68,0,73,.LM19-.LFBB4
 278               	.LM19:
 279 0098 81E0      		ldi r24,lo8(1)
 280 009a 00C0      		rjmp .L14
 281               	.L15:
  74:_commonCode_localized/coordStuff/0.90/coordStuff.c **** 	}
  75:_commonCode_localized/coordStuff/0.90/coordStuff.c **** 	else
  76:_commonCode_localized/coordStuff/0.90/coordStuff.c **** 		return 0;
 282               		.stabn	68,0,76,.LM20-.LFBB4
 283               	.LM20:
 284 009c 80E0      		ldi r24,0
 285               	.L14:
 286               	/* epilogue start */
  77:_commonCode_localized/coordStuff/0.90/coordStuff.c **** }
 287               		.stabn	68,0,77,.LM21-.LFBB4
 288               	.LM21:
 289 009e 1F91      		pop r17
 290 00a0 0F91      		pop r16
 291 00a2 FF90      		pop r15
 292 00a4 EF90      		pop r14
 293 00a6 DF90      		pop r13
 294 00a8 CF90      		pop r12
 295 00aa 0895      		ret
 296               		.size	coord_limit, .-coord_limit
 297               	.Lscope4:
 298               		.stabs	"",36,0,0,.Lscope4-.LFBB4
 299               		.stabd	78,0,0
 300               		.stabs	"ucoord_limit:F(4,1)",36,0,81,ucoord_limit
 301               		.stabs	"min:P(1,2)",64,0,81,22
 302               		.stabs	"val:P(0,49)=*(1,2)",64,0,81,30
 303               		.stabs	"max:P(1,2)",64,0,81,16
 304               	.global	ucoord_limit
 305               		.type	ucoord_limit, @function
 306               	ucoord_limit:
 307               		.stabd	46,0,0
  78:_commonCode_localized/coordStuff/0.90/coordStuff.c **** 
  79:_commonCode_localized/coordStuff/0.90/coordStuff.c **** //Returns -1 or +1 if limited to the min or max, respectively
  80:_commonCode_localized/coordStuff/0.90/coordStuff.c **** //Returns 0 if not limited
  81:_commonCode_localized/coordStuff/0.90/coordStuff.c **** int8_t ucoord_limit(ucoord_t min, ucoord_t *val, ucoord_t max)
  82:_commonCode_localized/coordStuff/0.90/coordStuff.c **** {
 308               		.stabn	68,0,82,.LM22-.LFBB5
 309               	.LM22:
 310               	.LFBB5:
 311 00ac CF92      		push r12
 312 00ae DF92      		push r13
 313 00b0 EF92      		push r14
 314 00b2 FF92      		push r15
 315 00b4 0F93      		push r16
GAS LISTING /var/folders/yG/yGnXnnFGGj4hKA71DL26EU+++TI/-Tmp-//ccKZ2F26.s 			page 8


 316 00b6 1F93      		push r17
 317               	/* prologue: function */
 318               	/* frame size = 0 */
 319               	/* stack size = 6 */
 320               	.L__stack_usage = 6
 321 00b8 FA01      		movw r30,r20
  83:_commonCode_localized/coordStuff/0.90/coordStuff.c ****    if(*val < min)
 322               		.stabn	68,0,83,.LM23-.LFBB5
 323               	.LM23:
 324 00ba C080      		ld r12,Z
 325 00bc D180      		ldd r13,Z+1
 326 00be E280      		ldd r14,Z+2
 327 00c0 F380      		ldd r15,Z+3
 328 00c2 C616      		cp r12,r22
 329 00c4 D706      		cpc r13,r23
 330 00c6 E806      		cpc r14,r24
 331 00c8 F906      		cpc r15,r25
 332 00ca 00F4      		brsh .L17
  84:_commonCode_localized/coordStuff/0.90/coordStuff.c ****    {
  85:_commonCode_localized/coordStuff/0.90/coordStuff.c ****       *val = min;
 333               		.stabn	68,0,85,.LM24-.LFBB5
 334               	.LM24:
 335 00cc 6083      		st Z,r22
 336 00ce 7183      		std Z+1,r23
 337 00d0 8283      		std Z+2,r24
 338 00d2 9383      		std Z+3,r25
  86:_commonCode_localized/coordStuff/0.90/coordStuff.c ****       return -1;
 339               		.stabn	68,0,86,.LM25-.LFBB5
 340               	.LM25:
 341 00d4 8FEF      		ldi r24,lo8(-1)
 342 00d6 00C0      		rjmp .L18
 343               	.L17:
  87:_commonCode_localized/coordStuff/0.90/coordStuff.c ****    }
  88:_commonCode_localized/coordStuff/0.90/coordStuff.c ****    else if(*val > max)
 344               		.stabn	68,0,88,.LM26-.LFBB5
 345               	.LM26:
 346 00d8 0C15      		cp r16,r12
 347 00da 1D05      		cpc r17,r13
 348 00dc 2E05      		cpc r18,r14
 349 00de 3F05      		cpc r19,r15
 350 00e0 00F4      		brsh .L19
  89:_commonCode_localized/coordStuff/0.90/coordStuff.c ****    {
  90:_commonCode_localized/coordStuff/0.90/coordStuff.c ****       *val = max;
 351               		.stabn	68,0,90,.LM27-.LFBB5
 352               	.LM27:
 353 00e2 0083      		st Z,r16
 354 00e4 1183      		std Z+1,r17
 355 00e6 2283      		std Z+2,r18
 356 00e8 3383      		std Z+3,r19
  91:_commonCode_localized/coordStuff/0.90/coordStuff.c ****       return 1;
 357               		.stabn	68,0,91,.LM28-.LFBB5
 358               	.LM28:
 359 00ea 81E0      		ldi r24,lo8(1)
 360 00ec 00C0      		rjmp .L18
 361               	.L19:
  92:_commonCode_localized/coordStuff/0.90/coordStuff.c ****    }
  93:_commonCode_localized/coordStuff/0.90/coordStuff.c ****    else
GAS LISTING /var/folders/yG/yGnXnnFGGj4hKA71DL26EU+++TI/-Tmp-//ccKZ2F26.s 			page 9


  94:_commonCode_localized/coordStuff/0.90/coordStuff.c ****       return 0;
 362               		.stabn	68,0,94,.LM29-.LFBB5
 363               	.LM29:
 364 00ee 80E0      		ldi r24,0
 365               	.L18:
 366               	/* epilogue start */
  95:_commonCode_localized/coordStuff/0.90/coordStuff.c **** }
 367               		.stabn	68,0,95,.LM30-.LFBB5
 368               	.LM30:
 369 00f0 1F91      		pop r17
 370 00f2 0F91      		pop r16
 371 00f4 FF90      		pop r15
 372 00f6 EF90      		pop r14
 373 00f8 DF90      		pop r13
 374 00fa CF90      		pop r12
 375 00fc 0895      		ret
 376               		.size	ucoord_limit, .-ucoord_limit
 377               	.Lscope5:
 378               		.stabs	"",36,0,0,.Lscope5-.LFBB5
 379               		.stabd	78,0,0
 380               		.stabs	"",100,0,0,.Letext0
 381               	.Letext0:
 382               		.ident	"GCC: (GNU) 4.8.2"
GAS LISTING /var/folders/yG/yGnXnnFGGj4hKA71DL26EU+++TI/-Tmp-//ccKZ2F26.s 			page 10


DEFINED SYMBOLS
                            *ABS*:00000000 coordStuff.c
/var/folders/yG/yGnXnnFGGj4hKA71DL26EU+++TI/-Tmp-//ccKZ2F26.s:2      *ABS*:0000003e __SP_H__
/var/folders/yG/yGnXnnFGGj4hKA71DL26EU+++TI/-Tmp-//ccKZ2F26.s:3      *ABS*:0000003d __SP_L__
/var/folders/yG/yGnXnnFGGj4hKA71DL26EU+++TI/-Tmp-//ccKZ2F26.s:4      *ABS*:0000003f __SREG__
/var/folders/yG/yGnXnnFGGj4hKA71DL26EU+++TI/-Tmp-//ccKZ2F26.s:5      *ABS*:00000000 __tmp_reg__
/var/folders/yG/yGnXnnFGGj4hKA71DL26EU+++TI/-Tmp-//ccKZ2F26.s:6      *ABS*:00000001 __zero_reg__
/var/folders/yG/yGnXnnFGGj4hKA71DL26EU+++TI/-Tmp-//ccKZ2F26.s:103    .text:00000000 coord_abs
/var/folders/yG/yGnXnnFGGj4hKA71DL26EU+++TI/-Tmp-//ccKZ2F26.s:153    .text:0000002a coord_max
/var/folders/yG/yGnXnnFGGj4hKA71DL26EU+++TI/-Tmp-//ccKZ2F26.s:181    .text:0000003a coord_sign
/var/folders/yG/yGnXnnFGGj4hKA71DL26EU+++TI/-Tmp-//ccKZ2F26.s:226    .text:0000005a coord_limit
/var/folders/yG/yGnXnnFGGj4hKA71DL26EU+++TI/-Tmp-//ccKZ2F26.s:306    .text:000000ac ucoord_limit

NO UNDEFINED SYMBOLS
