GAS LISTING /var/folders/yG/yGnXnnFGGj4hKA71DL26EU+++TI/-Tmp-//ccGWPftp.s 			page 1


   1               		.file	"sineTable.c"
   2               	__SP_H__ = 0x3e
   3               	__SP_L__ = 0x3d
   4               	__SREG__ = 0x3f
   5               	__tmp_reg__ = 0
   6               	__zero_reg__ = 1
   7               		.stabs	"/Users/meh/_avrProjects/LCDdirectLVDS/67-pwm161/",100,0,2,.Ltext0
   8               		.stabs	"_commonCode_localized/sineTable/0.99/sineTable.c",100,0,2,.Ltext0
   9               		.text
  10               	.Ltext0:
  11               		.stabs	"gcc2_compiled.",60,0,0,0
  12               		.stabs	"int:t(0,1)=r(0,1);-32768;32767;",128,0,0,0
  13               		.stabs	"char:t(0,2)=@s8;r(0,2);0;255;",128,0,0,0
  14               		.stabs	"long int:t(0,3)=@s32;r(0,3);020000000000;017777777777;",128,0,0,0
  15               		.stabs	"unsigned int:t(0,4)=r(0,4);0;0177777;",128,0,0,0
  16               		.stabs	"long unsigned int:t(0,5)=@s32;r(0,5);0;037777777777;",128,0,0,0
  17               		.stabs	"long long int:t(0,6)=@s64;r(0,6);01000000000000000000000;0777777777777777777777;",128,0,0,
  18               		.stabs	"long long unsigned int:t(0,7)=@s64;r(0,7);0;01777777777777777777777;",128,0,0,0
  19               		.stabs	"short int:t(0,8)=r(0,8);-32768;32767;",128,0,0,0
  20               		.stabs	"short unsigned int:t(0,9)=r(0,9);0;0177777;",128,0,0,0
  21               		.stabs	"signed char:t(0,10)=@s8;r(0,10);-128;127;",128,0,0,0
  22               		.stabs	"unsigned char:t(0,11)=@s8;r(0,11);0;255;",128,0,0,0
  23               		.stabs	"float:t(0,12)=r(0,1);4;0;",128,0,0,0
  24               		.stabs	"double:t(0,13)=r(0,1);4;0;",128,0,0,0
  25               		.stabs	"long double:t(0,14)=r(0,1);4;0;",128,0,0,0
  26               		.stabs	"short _Fract:t(0,15)=r(0,1);1;0;",128,0,0,0
  27               		.stabs	"_Fract:t(0,16)=r(0,1);2;0;",128,0,0,0
  28               		.stabs	"long _Fract:t(0,17)=r(0,1);4;0;",128,0,0,0
  29               		.stabs	"long long _Fract:t(0,18)=r(0,1);8;0;",128,0,0,0
  30               		.stabs	"unsigned short _Fract:t(0,19)=r(0,1);1;0;",128,0,0,0
  31               		.stabs	"unsigned _Fract:t(0,20)=r(0,1);2;0;",128,0,0,0
  32               		.stabs	"unsigned long _Fract:t(0,21)=r(0,1);4;0;",128,0,0,0
  33               		.stabs	"unsigned long long _Fract:t(0,22)=r(0,1);8;0;",128,0,0,0
  34               		.stabs	"_Sat short _Fract:t(0,23)=r(0,1);1;0;",128,0,0,0
  35               		.stabs	"_Sat _Fract:t(0,24)=r(0,1);2;0;",128,0,0,0
  36               		.stabs	"_Sat long _Fract:t(0,25)=r(0,1);4;0;",128,0,0,0
  37               		.stabs	"_Sat long long _Fract:t(0,26)=r(0,1);8;0;",128,0,0,0
  38               		.stabs	"_Sat unsigned short _Fract:t(0,27)=r(0,1);1;0;",128,0,0,0
  39               		.stabs	"_Sat unsigned _Fract:t(0,28)=r(0,1);2;0;",128,0,0,0
  40               		.stabs	"_Sat unsigned long _Fract:t(0,29)=r(0,1);4;0;",128,0,0,0
  41               		.stabs	"_Sat unsigned long long _Fract:t(0,30)=r(0,1);8;0;",128,0,0,0
  42               		.stabs	"short _Accum:t(0,31)=r(0,1);2;0;",128,0,0,0
  43               		.stabs	"_Accum:t(0,32)=r(0,1);4;0;",128,0,0,0
  44               		.stabs	"long _Accum:t(0,33)=r(0,1);8;0;",128,0,0,0
  45               		.stabs	"long long _Accum:t(0,34)=r(0,1);8;0;",128,0,0,0
  46               		.stabs	"unsigned short _Accum:t(0,35)=r(0,1);2;0;",128,0,0,0
  47               		.stabs	"unsigned _Accum:t(0,36)=r(0,1);4;0;",128,0,0,0
  48               		.stabs	"unsigned long _Accum:t(0,37)=r(0,1);8;0;",128,0,0,0
  49               		.stabs	"unsigned long long _Accum:t(0,38)=r(0,1);8;0;",128,0,0,0
  50               		.stabs	"_Sat short _Accum:t(0,39)=r(0,1);2;0;",128,0,0,0
  51               		.stabs	"_Sat _Accum:t(0,40)=r(0,1);4;0;",128,0,0,0
  52               		.stabs	"_Sat long _Accum:t(0,41)=r(0,1);8;0;",128,0,0,0
  53               		.stabs	"_Sat long long _Accum:t(0,42)=r(0,1);8;0;",128,0,0,0
  54               		.stabs	"_Sat unsigned short _Accum:t(0,43)=r(0,1);2;0;",128,0,0,0
  55               		.stabs	"_Sat unsigned _Accum:t(0,44)=r(0,1);4;0;",128,0,0,0
  56               		.stabs	"_Sat unsigned long _Accum:t(0,45)=r(0,1);8;0;",128,0,0,0
  57               		.stabs	"_Sat unsigned long long _Accum:t(0,46)=r(0,1);8;0;",128,0,0,0
GAS LISTING /var/folders/yG/yGnXnnFGGj4hKA71DL26EU+++TI/-Tmp-//ccGWPftp.s 			page 2


  58               		.stabs	"void:t(0,47)=(0,47)",128,0,0,0
  59               		.stabs	"_commonCode_localized/sineTable/0.99/sineTable.h",130,0,0,0
  60               		.stabs	"/opt/local/avr/include/inttypes.h",130,0,0,0
  61               		.stabs	"/opt/local/lib/gcc/avr/4.8.2/include/stdint.h",130,0,0,0
  62               		.stabs	"/opt/local/avr/include/stdint.h",130,0,0,0
  63               		.stabs	"int8_t:t(4,1)=(0,10)",128,0,121,0
  64               		.stabs	"uint8_t:t(4,2)=(0,11)",128,0,122,0
  65               		.stabs	"int16_t:t(4,3)=(0,1)",128,0,123,0
  66               		.stabs	"uint16_t:t(4,4)=(0,4)",128,0,124,0
  67               		.stabs	"int32_t:t(4,5)=(0,3)",128,0,125,0
  68               		.stabs	"uint32_t:t(4,6)=(0,5)",128,0,126,0
  69               		.stabs	"int64_t:t(4,7)=(0,6)",128,0,128,0
  70               		.stabs	"uint64_t:t(4,8)=(0,7)",128,0,129,0
  71               		.stabs	"intptr_t:t(4,9)=(4,3)",128,0,142,0
  72               		.stabs	"uintptr_t:t(4,10)=(4,4)",128,0,147,0
  73               		.stabs	"int_least8_t:t(4,11)=(4,1)",128,0,159,0
  74               		.stabs	"uint_least8_t:t(4,12)=(4,2)",128,0,164,0
  75               		.stabs	"int_least16_t:t(4,13)=(4,3)",128,0,169,0
  76               		.stabs	"uint_least16_t:t(4,14)=(4,4)",128,0,174,0
  77               		.stabs	"int_least32_t:t(4,15)=(4,5)",128,0,179,0
  78               		.stabs	"uint_least32_t:t(4,16)=(4,6)",128,0,184,0
  79               		.stabs	"int_least64_t:t(4,17)=(4,7)",128,0,192,0
  80               		.stabs	"uint_least64_t:t(4,18)=(4,8)",128,0,199,0
  81               		.stabs	"int_fast8_t:t(4,19)=(4,1)",128,0,213,0
  82               		.stabs	"uint_fast8_t:t(4,20)=(4,2)",128,0,218,0
  83               		.stabs	"int_fast16_t:t(4,21)=(4,3)",128,0,223,0
  84               		.stabs	"uint_fast16_t:t(4,22)=(4,4)",128,0,228,0
  85               		.stabs	"int_fast32_t:t(4,23)=(4,5)",128,0,233,0
  86               		.stabs	"uint_fast32_t:t(4,24)=(4,6)",128,0,238,0
  87               		.stabs	"int_fast64_t:t(4,25)=(4,7)",128,0,246,0
  88               		.stabs	"uint_fast64_t:t(4,26)=(4,8)",128,0,253,0
  89               		.stabs	"intmax_t:t(4,27)=(4,7)",128,0,273,0
  90               		.stabs	"uintmax_t:t(4,28)=(4,8)",128,0,278,0
  91               		.stabn	162,0,0,0
  92               		.stabn	162,0,0,0
  93               		.stabs	"int_farptr_t:t(2,1)=(4,5)",128,0,77,0
  94               		.stabs	"uint_farptr_t:t(2,2)=(4,6)",128,0,81,0
  95               		.stabn	162,0,0,0
  96               		.stabs	"/opt/local/avr/include/avr/pgmspace.h",130,0,0,0
  97               		.stabs	"/opt/local/lib/gcc/avr/4.8.2/include/stddef.h",130,0,0,0
  98               		.stabs	"size_t:t(6,1)=(0,4)",128,0,212,0
  99               		.stabn	162,0,0,0
 100               		.stabs	"/opt/local/avr/include/avr/io.h",130,0,0,0
 101               		.stabs	"/opt/local/avr/include/avr/fuse.h",130,0,0,0
 102               		.stabs	"__fuse_t:t(8,1)=(8,2)=s3low:(0,11),0,8;high:(0,11),8,8;extended:(0,11),16,8;;",128,0,244,0
 103               		.stabn	162,0,0,0
 104               		.stabn	162,0,0,0
 105               		.stabs	"prog_void:t(5,1)=(5,2)=(5,2)",128,0,349,0
 106               		.stabs	"prog_char:t(5,3)=(5,4)=@s8;r(5,4);0;255;",128,0,350,0
 107               		.stabs	"prog_uchar:t(5,5)=(5,6)=@s8;r(5,6);0;255;",128,0,351,0
 108               		.stabs	"prog_int8_t:t(5,7)=(5,8)=(0,10)",128,0,352,0
 109               		.stabs	"prog_uint8_t:t(5,9)=(5,10)=(0,11)",128,0,353,0
 110               		.stabs	"prog_int16_t:t(5,11)=(5,12)=(0,1)",128,0,354,0
 111               		.stabs	"prog_uint16_t:t(5,13)=(5,14)=(0,4)",128,0,355,0
 112               		.stabs	"prog_int32_t:t(5,15)=(5,16)=(0,3)",128,0,356,0
 113               		.stabs	"prog_uint32_t:t(5,17)=(5,18)=(0,5)",128,0,357,0
 114               		.stabs	"prog_int64_t:t(5,19)=(5,20)=(0,6)",128,0,359,0
GAS LISTING /var/folders/yG/yGnXnnFGGj4hKA71DL26EU+++TI/-Tmp-//ccGWPftp.s 			page 3


 115               		.stabs	"prog_uint64_t:t(5,21)=(5,22)=(0,7)",128,0,360,0
 116               		.stabn	162,0,0,0
 117               		.stabs	"theta_t:t(1,1)=(4,3)",128,0,89,0
 118               		.stabs	"sine_t:t(1,2)=(4,3)",128,0,116,0
 119               		.stabs	"mult_t:t(1,3)=(4,5)",128,0,119,0
 120               		.stabs	"axis_t:t(1,4)=(4,5)",128,0,136,0
 121               		.stabn	162,0,0,0
 122               		.stabs	"quadrantizeTheta:F(1,1)",36,0,155,quadrantizeTheta
 123               		.stabs	"theta:P(1,1)",64,0,155,24
 124               	.global	quadrantizeTheta
 125               		.type	quadrantizeTheta, @function
 126               	quadrantizeTheta:
 127               		.stabd	46,0,0
   1:_commonCode_localized/sineTable/0.99/sineTable.c **** //Should be in sineTable.h anyhow.
   2:_commonCode_localized/sineTable/0.99/sineTable.c **** //#include <avr/pgmspace.h>
   3:_commonCode_localized/sineTable/0.99/sineTable.c **** #include "sineTable.h"
   4:_commonCode_localized/sineTable/0.99/sineTable.c **** 
   5:_commonCode_localized/sineTable/0.99/sineTable.c **** #if (_SINE_TYPE_ == 8)
   6:_commonCode_localized/sineTable/0.99/sineTable.c **** const int8_t sineTable[129] PROGMEM = {
   7:_commonCode_localized/sineTable/0.99/sineTable.c **** 	0, \
   8:_commonCode_localized/sineTable/0.99/sineTable.c **** 	2, 3, 5, 6, 8, \
   9:_commonCode_localized/sineTable/0.99/sineTable.c **** 	9, 11, 12, 14, 16, \
  10:_commonCode_localized/sineTable/0.99/sineTable.c **** 	17, 19, 20, 22, 23, \
  11:_commonCode_localized/sineTable/0.99/sineTable.c **** 	25, 26, 28, 29, 31, \
  12:_commonCode_localized/sineTable/0.99/sineTable.c **** 	32, 34, 35, 37, 38, \
  13:_commonCode_localized/sineTable/0.99/sineTable.c **** 	40, 41, 43, 44, 46, \
  14:_commonCode_localized/sineTable/0.99/sineTable.c **** 	47, 49, 50, 51, 53, \
  15:_commonCode_localized/sineTable/0.99/sineTable.c **** 	54, 56, 57, 58, 60, \
  16:_commonCode_localized/sineTable/0.99/sineTable.c **** 	61, 63, 64, 65, 67, \
  17:_commonCode_localized/sineTable/0.99/sineTable.c **** 	68, 69, 71, 72, 73, \
  18:_commonCode_localized/sineTable/0.99/sineTable.c **** 	74, 76, 77, 78, 79, \
  19:_commonCode_localized/sineTable/0.99/sineTable.c **** 	81, 82, 83, 84, 85, \
  20:_commonCode_localized/sineTable/0.99/sineTable.c **** 	86, 88, 89, 90, 91, \
  21:_commonCode_localized/sineTable/0.99/sineTable.c **** 	92, 93, 94, 95, 96, \
  22:_commonCode_localized/sineTable/0.99/sineTable.c **** 	97, 98, 99, 100, 101, \
  23:_commonCode_localized/sineTable/0.99/sineTable.c **** 	102, 103, 104, 105, 106, \
  24:_commonCode_localized/sineTable/0.99/sineTable.c **** 	106, 107, 108, 109, 110, \
  25:_commonCode_localized/sineTable/0.99/sineTable.c **** 	111, 111, 112, 113, 113, \
  26:_commonCode_localized/sineTable/0.99/sineTable.c **** 	114, 115, 115, 116, 117, \
  27:_commonCode_localized/sineTable/0.99/sineTable.c **** 	117, 118, 118, 119, 120, \
  28:_commonCode_localized/sineTable/0.99/sineTable.c **** 	120, 121, 121, 122, 122, \
  29:_commonCode_localized/sineTable/0.99/sineTable.c **** 	122, 123, 123, 124, 124, \
  30:_commonCode_localized/sineTable/0.99/sineTable.c **** 	124, 125, 125, 125, 125, \
  31:_commonCode_localized/sineTable/0.99/sineTable.c **** 	126, 126, 126, 126, 126, \
  32:_commonCode_localized/sineTable/0.99/sineTable.c **** 	127, 127, 127, 127, 127, \
  33:_commonCode_localized/sineTable/0.99/sineTable.c **** 	127, 127, 127
  34:_commonCode_localized/sineTable/0.99/sineTable.c **** };
  35:_commonCode_localized/sineTable/0.99/sineTable.c **** 
  36:_commonCode_localized/sineTable/0.99/sineTable.c **** #define pgm_read_sine8(variable) \
  37:_commonCode_localized/sineTable/0.99/sineTable.c ****      ((int8_t)pgm_read_byte((int8_t *)(&(variable))))
  38:_commonCode_localized/sineTable/0.99/sineTable.c **** 
  39:_commonCode_localized/sineTable/0.99/sineTable.c **** 
  40:_commonCode_localized/sineTable/0.99/sineTable.c **** #define SINE_DISABLE_SINERAW	TRUE
  41:_commonCode_localized/sineTable/0.99/sineTable.c **** #define SINE_RAW8	TRUE
  42:_commonCode_localized/sineTable/0.99/sineTable.c **** 
  43:_commonCode_localized/sineTable/0.99/sineTable.c **** #elif (_SINE_TYPE_ == 16)
  44:_commonCode_localized/sineTable/0.99/sineTable.c **** 
GAS LISTING /var/folders/yG/yGnXnnFGGj4hKA71DL26EU+++TI/-Tmp-//ccGWPftp.s 			page 4


  45:_commonCode_localized/sineTable/0.99/sineTable.c **** // WHOOPS! ... actually the nearly exactly 256byte data section increase
  46:_commonCode_localized/sineTable/0.99/sineTable.c **** //   was due to double in sineScaled... (?)
  47:_commonCode_localized/sineTable/0.99/sineTable.c **** //   (then why is the .data section so small as to not include this table?)
  48:_commonCode_localized/sineTable/0.99/sineTable.c **** // prog_int16_t sineTable[] = { 
  49:_commonCode_localized/sineTable/0.99/sineTable.c **** const theta_t sineTable[129] PROGMEM = {
  50:_commonCode_localized/sineTable/0.99/sineTable.c **** 	 0, 402, 804, 1206, 1608, 2009, \
  51:_commonCode_localized/sineTable/0.99/sineTable.c **** 	 2410, 2811, 3212, 3612, 4011, \
  52:_commonCode_localized/sineTable/0.99/sineTable.c **** 	 4410, 4808, 5205, 5602, 5998, \
  53:_commonCode_localized/sineTable/0.99/sineTable.c **** 	 6393, 6786, 7179, 7571, 7962, \
  54:_commonCode_localized/sineTable/0.99/sineTable.c **** 	 8351, 8739, 9126, 9512, 9896, \
  55:_commonCode_localized/sineTable/0.99/sineTable.c **** 	 10278, 10659, 11039, 11417, 11793, \
  56:_commonCode_localized/sineTable/0.99/sineTable.c **** 	 12167, 12539, 12910, 13279, 13645, \
  57:_commonCode_localized/sineTable/0.99/sineTable.c **** 	 14010, 14372, 14732, 15090, 15446, \
  58:_commonCode_localized/sineTable/0.99/sineTable.c **** 	 15800, 16151, 16499, 16846, 17189, \
  59:_commonCode_localized/sineTable/0.99/sineTable.c **** 	 17530, 17869, 18204, 18537, 18868, \
  60:_commonCode_localized/sineTable/0.99/sineTable.c **** 	 19195, 19519, 19841, 20159, 20475, \
  61:_commonCode_localized/sineTable/0.99/sineTable.c **** 	 20787, 21096, 21403, 21705, 22005, \
  62:_commonCode_localized/sineTable/0.99/sineTable.c **** 	 22301, 22594, 22884, 23170, 23452, \
  63:_commonCode_localized/sineTable/0.99/sineTable.c **** 	 23731, 24007, 24279, 24547, 24811, \
  64:_commonCode_localized/sineTable/0.99/sineTable.c **** 	 25072, 25329, 25582, 25832, 26077, \
  65:_commonCode_localized/sineTable/0.99/sineTable.c **** 	 26319, 26556, 26790, 27019, 27245, \
  66:_commonCode_localized/sineTable/0.99/sineTable.c **** 	 27466, 27683, 27896, 28105, 28310, \
  67:_commonCode_localized/sineTable/0.99/sineTable.c **** 	 28510, 28706, 28898, 29085, 29268, \
  68:_commonCode_localized/sineTable/0.99/sineTable.c **** 	 29447, 29621, 29791, 29956, 30117, \
  69:_commonCode_localized/sineTable/0.99/sineTable.c **** 	 30273, 30424, 30571, 30714, 30852, \
  70:_commonCode_localized/sineTable/0.99/sineTable.c **** 	 30985, 31113, 31237, 31356, 31470, \
  71:_commonCode_localized/sineTable/0.99/sineTable.c **** 	 31580, 31685, 31785, 31880, 31971, \
  72:_commonCode_localized/sineTable/0.99/sineTable.c **** 	 32057, 32137, 32213, 32285, 32351, \
  73:_commonCode_localized/sineTable/0.99/sineTable.c **** 	 32412, 32469, 32521, 32567, 32609, \
  74:_commonCode_localized/sineTable/0.99/sineTable.c **** 	 32646, 32678, 32705, 32728, 32745, \
  75:_commonCode_localized/sineTable/0.99/sineTable.c **** 	 32757, 32765, 32767};
  76:_commonCode_localized/sineTable/0.99/sineTable.c **** 
  77:_commonCode_localized/sineTable/0.99/sineTable.c **** /* NOT ROUNDED:
  78:_commonCode_localized/sineTable/0.99/sineTable.c **** 	0, 402, 804, 1206, 1607, 2009, \
  79:_commonCode_localized/sineTable/0.99/sineTable.c **** 	2410, 2811, 3211, 3611, 4011, \
  80:_commonCode_localized/sineTable/0.99/sineTable.c **** 	4409, 4807, 5205, 5601, 5997, \
  81:_commonCode_localized/sineTable/0.99/sineTable.c **** 	6392, 6786, 7179, 7571, 7961, \
  82:_commonCode_localized/sineTable/0.99/sineTable.c **** 	8351, 8739, 9126, 9511, 9895, \
  83:_commonCode_localized/sineTable/0.99/sineTable.c **** 	10278, 10659, 11038, 11416, 11792, \
  84:_commonCode_localized/sineTable/0.99/sineTable.c **** 	12166, 12539, 12909, 13278, 13645, \
  85:_commonCode_localized/sineTable/0.99/sineTable.c **** 	14009, 14372, 14732, 15090, 15446, \
  86:_commonCode_localized/sineTable/0.99/sineTable.c **** 	15799, 16150, 16499, 16845, 17189, \
  87:_commonCode_localized/sineTable/0.99/sineTable.c **** 	17530, 17868, 18204, 18537, 18867, \
  88:_commonCode_localized/sineTable/0.99/sineTable.c **** 	19194, 19519, 19840, 20159, 20474, \
  89:_commonCode_localized/sineTable/0.99/sineTable.c **** 	20787, 21096, 21402, 21705, 22004, \
  90:_commonCode_localized/sineTable/0.99/sineTable.c **** 	22301, 22594, 22883, 23169, 23452, \
  91:_commonCode_localized/sineTable/0.99/sineTable.c **** 	23731, 24006, 24278, 24546, 24811, \
  92:_commonCode_localized/sineTable/0.99/sineTable.c **** 	25072, 25329, 25582, 25831, 26077, \
  93:_commonCode_localized/sineTable/0.99/sineTable.c **** 	26318, 26556, 26789, 27019, 27244, \
  94:_commonCode_localized/sineTable/0.99/sineTable.c **** 	27466, 27683, 27896, 28105, 28309, \
  95:_commonCode_localized/sineTable/0.99/sineTable.c **** 	28510, 28706, 28897, 29085, 29268, \
  96:_commonCode_localized/sineTable/0.99/sineTable.c **** 	29446, 29621, 29790, 29955, 30116, \
  97:_commonCode_localized/sineTable/0.99/sineTable.c **** 	30272, 30424, 30571, 30713, 30851, \
  98:_commonCode_localized/sineTable/0.99/sineTable.c **** 	30984, 31113, 31236, 31356, 31470, \
  99:_commonCode_localized/sineTable/0.99/sineTable.c **** 	31580, 31684, 31785, 31880, 31970, \
 100:_commonCode_localized/sineTable/0.99/sineTable.c **** 	32056, 32137, 32213, 32284, 32350, \
 101:_commonCode_localized/sineTable/0.99/sineTable.c **** 	32412, 32468, 32520, 32567, 32609, \
GAS LISTING /var/folders/yG/yGnXnnFGGj4hKA71DL26EU+++TI/-Tmp-//ccGWPftp.s 			page 5


 102:_commonCode_localized/sineTable/0.99/sineTable.c **** 	32646, 32678, 32705, 32727, 32744, \
 103:_commonCode_localized/sineTable/0.99/sineTable.c **** 	32757, 32764, 32767};
 104:_commonCode_localized/sineTable/0.99/sineTable.c **** */
 105:_commonCode_localized/sineTable/0.99/sineTable.c ****  #define pgm_read_sine(variable)	pgm_read_word(&(variable))
 106:_commonCode_localized/sineTable/0.99/sineTable.c **** 
 107:_commonCode_localized/sineTable/0.99/sineTable.c **** //Read the upper byte...
 108:_commonCode_localized/sineTable/0.99/sineTable.c ****  #define pgm_read_sine8(variable) \
 109:_commonCode_localized/sineTable/0.99/sineTable.c **** 		((int8_t)pgm_read_byte((int8_t *)(&(variable))+1))
 110:_commonCode_localized/sineTable/0.99/sineTable.c **** 
 111:_commonCode_localized/sineTable/0.99/sineTable.c **** #elif (_SINE_TYPE_ == 32)
 112:_commonCode_localized/sineTable/0.99/sineTable.c **** 
 113:_commonCode_localized/sineTable/0.99/sineTable.c ****  //Should be 129 values... addresses 0-128
 114:_commonCode_localized/sineTable/0.99/sineTable.c **** // prog_int32_t sineTable[] = { 
 115:_commonCode_localized/sineTable/0.99/sineTable.c **** const int32_t sineTable[] PROGMEM = {
 116:_commonCode_localized/sineTable/0.99/sineTable.c **** 	0, 26352927, 52701886, 79042909, 105372028, 131685278, \
 117:_commonCode_localized/sineTable/0.99/sineTable.c **** 	157978697, 184248325, 210490205, 236700387, 262874923, \
 118:_commonCode_localized/sineTable/0.99/sineTable.c **** 	289009870, 315101294, 341145265, 367137860, 393075166, \
 119:_commonCode_localized/sineTable/0.99/sineTable.c **** 	418953276, 444768293, 470516330, 496193509, 521795962, \
 120:_commonCode_localized/sineTable/0.99/sineTable.c **** 	547319836, 572761285, 598116478, 623381597, 648552837, \
 121:_commonCode_localized/sineTable/0.99/sineTable.c **** 	673626407, 698598532, 723465451, 748223418, 772868705, \
 122:_commonCode_localized/sineTable/0.99/sineTable.c **** 	797397601, 821806412, 846091463, 870249094, 894275670, \
 123:_commonCode_localized/sineTable/0.99/sineTable.c **** 	918167571, 941921199, 965532977, 988999350, 1012316783, \
 124:_commonCode_localized/sineTable/0.99/sineTable.c **** 	1035481765, 1058490807, 1081340444, 1104027236, 1126547764, \
 125:_commonCode_localized/sineTable/0.99/sineTable.c **** 	1148898639, 1171076494, 1193077990, 1214899812, 1236538674, \
 126:_commonCode_localized/sineTable/0.99/sineTable.c **** 	1257991319, 1279254514, 1300325059, 1321199779, 1341875532, \
 127:_commonCode_localized/sineTable/0.99/sineTable.c **** 	1362349203, 1382617709, 1402677998, 1422527049, 1442161873, \
 128:_commonCode_localized/sineTable/0.99/sineTable.c **** 	1461579512, 1480777043, 1499751575, 1518500249, 1537020242, \
 129:_commonCode_localized/sineTable/0.99/sineTable.c **** 	1555308767, 1573363067, 1591180424, 1608758156, 1626093615, \
 130:_commonCode_localized/sineTable/0.99/sineTable.c **** 	1643184190, 1660027307, 1676620430, 1692961061, 1709046738, \
 131:_commonCode_localized/sineTable/0.99/sineTable.c **** 	1724875039, 1740443579, 1755750016, 1770792043, 1785567395, \
 132:_commonCode_localized/sineTable/0.99/sineTable.c **** 	1800073847, 1814309215, 1828271354, 1841958163, 1855367579, \
 133:_commonCode_localized/sineTable/0.99/sineTable.c **** 	1868497584, 1881346200, 1893911493, 1906191569, 1918184579, \
 134:_commonCode_localized/sineTable/0.99/sineTable.c **** 	1929888719, 1941302224, 1952423376, 1963250500, 1973781966, \
 135:_commonCode_localized/sineTable/0.99/sineTable.c **** 	1984016187, 1993951623, 2003586778, 2012920199, 2021950482, \
 136:_commonCode_localized/sineTable/0.99/sineTable.c **** 	2030676267, 2039096240, 2047209132, 2055013722, 2062508834, \
 137:_commonCode_localized/sineTable/0.99/sineTable.c **** 	2069693340, 2076566158, 2083126253, 2089372636, 2095304368, \
 138:_commonCode_localized/sineTable/0.99/sineTable.c **** 	2100920555, 2106220350, 2111202957, 2115867624, 2120213650, \
 139:_commonCode_localized/sineTable/0.99/sineTable.c **** 	2124240379, 2127947205, 2131333570, 2134398964, 2137142926, \
 140:_commonCode_localized/sineTable/0.99/sineTable.c **** 	2139565041, 2141664947, 2143442325, 2144896908, 2146028478, \
 141:_commonCode_localized/sineTable/0.99/sineTable.c **** 	2146836865, 2147321945, 2147483647};
 142:_commonCode_localized/sineTable/0.99/sineTable.c **** 
 143:_commonCode_localized/sineTable/0.99/sineTable.c ****  #define pgm_read_sine(variable)	pgm_read_dword(&(variable))
 144:_commonCode_localized/sineTable/0.99/sineTable.c **** 
 145:_commonCode_localized/sineTable/0.99/sineTable.c **** #else
 146:_commonCode_localized/sineTable/0.99/sineTable.c ****  #error "SINE_TYPE not defined or not handled"
 147:_commonCode_localized/sineTable/0.99/sineTable.c **** #endif
 148:_commonCode_localized/sineTable/0.99/sineTable.c **** 
 149:_commonCode_localized/sineTable/0.99/sineTable.c **** #if (!defined(SINE_TABLE_ONLY) || !SINE_TABLE_ONLY)
 150:_commonCode_localized/sineTable/0.99/sineTable.c **** 
 151:_commonCode_localized/sineTable/0.99/sineTable.c **** //Takes theta of any value in theta_t's range, and returns a theta
 152:_commonCode_localized/sineTable/0.99/sineTable.c **** // that fits in the first quadrant (for reading from the table)
 153:_commonCode_localized/sineTable/0.99/sineTable.c **** // negative values returned here are to be absoluted, first
 154:_commonCode_localized/sineTable/0.99/sineTable.c **** // but they indicate that the resulting sine value is to be negated
 155:_commonCode_localized/sineTable/0.99/sineTable.c **** theta_t quadrantizeTheta(theta_t theta)
 156:_commonCode_localized/sineTable/0.99/sineTable.c **** {
 128               		.stabn	68,0,156,.LM0-.LFBB1
 129               	.LM0:
GAS LISTING /var/folders/yG/yGnXnnFGGj4hKA71DL26EU+++TI/-Tmp-//ccGWPftp.s 			page 6


 130               	.LFBB1:
 131               	/* prologue: function */
 132               	/* frame size = 0 */
 133               	/* stack size = 0 */
 134               	.L__stack_usage = 0
 157:_commonCode_localized/sineTable/0.99/sineTable.c **** 
 158:_commonCode_localized/sineTable/0.99/sineTable.c **** 	theta %= SINE_2PI;
 135               		.stabn	68,0,158,.LM1-.LFBB1
 136               	.LM1:
 137 0000 60E0      		ldi r22,0
 138 0002 72E0      		ldi r23,lo8(2)
 139 0004 0E94 0000 		call __divmodhi4
 159:_commonCode_localized/sineTable/0.99/sineTable.c **** 
 160:_commonCode_localized/sineTable/0.99/sineTable.c **** 	if(theta < 0)
 140               		.stabn	68,0,160,.LM2-.LFBB1
 141               	.LM2:
 142 0008 97FD      		sbrc r25,7
 161:_commonCode_localized/sineTable/0.99/sineTable.c **** 		theta = SINE_2PI + theta;
 143               		.stabn	68,0,161,.LM3-.LFBB1
 144               	.LM3:
 145 000a 9E5F      		subi r25,-2
 146               	.L2:
 162:_commonCode_localized/sineTable/0.99/sineTable.c **** 
 163:_commonCode_localized/sineTable/0.99/sineTable.c **** //For more accurate realtimeishness, it might be worthwhile to reverse this order...
 164:_commonCode_localized/sineTable/0.99/sineTable.c **** 	
 165:_commonCode_localized/sineTable/0.99/sineTable.c **** 	//in the first quadrant, just take the sine value from the table
 166:_commonCode_localized/sineTable/0.99/sineTable.c **** 	if(theta < SINE_SIZE-1) //128)
 147               		.stabn	68,0,166,.LM4-.LFBB1
 148               	.LM4:
 149 000c 8038      		cpi r24,-128
 150 000e 9105      		cpc r25,__zero_reg__
 151 0010 04F0      		brlt .L3
 167:_commonCode_localized/sineTable/0.99/sineTable.c **** 	{
 168:_commonCode_localized/sineTable/0.99/sineTable.c **** 		//theta=theta;
 169:_commonCode_localized/sineTable/0.99/sineTable.c **** 	}	
 170:_commonCode_localized/sineTable/0.99/sineTable.c **** 	//in the second quadrant, mirror theta and subtract the offset
 171:_commonCode_localized/sineTable/0.99/sineTable.c **** 	else if(theta < SINE_SIZE2) //256)
 152               		.stabn	68,0,171,.LM5-.LFBB1
 153               	.LM5:
 154 0012 8F3F      		cpi r24,-1
 155 0014 9105      		cpc r25,__zero_reg__
 156 0016 01F0      		breq .L6
 157 0018 04F0      		brlt .L6
 172:_commonCode_localized/sineTable/0.99/sineTable.c **** 	{
 173:_commonCode_localized/sineTable/0.99/sineTable.c **** 		theta=SINE_SIZE2-theta;
 174:_commonCode_localized/sineTable/0.99/sineTable.c **** 		//return pgm_read_sine(sineTable[SINE_SIZE2-theta]); //256-theta]);
 175:_commonCode_localized/sineTable/0.99/sineTable.c **** 	}
 176:_commonCode_localized/sineTable/0.99/sineTable.c **** 	//in the third quadrant, mirror the value and subtract the offset
 177:_commonCode_localized/sineTable/0.99/sineTable.c **** 	else if(theta < SINE_SIZE3) //384)
 158               		.stabn	68,0,177,.LM6-.LFBB1
 159               	.LM6:
 160 001a 8038      		cpi r24,-128
 161 001c 51E0      		ldi r21,1
 162 001e 9507      		cpc r25,r21
 163 0020 04F4      		brge .L5
 164               	.L6:
 178:_commonCode_localized/sineTable/0.99/sineTable.c **** 	{
GAS LISTING /var/folders/yG/yGnXnnFGGj4hKA71DL26EU+++TI/-Tmp-//ccGWPftp.s 			page 7


 179:_commonCode_localized/sineTable/0.99/sineTable.c **** 		theta=-(theta-SINE_SIZE2);
 165               		.stabn	68,0,179,.LM7-.LFBB1
 166               	.LM7:
 167 0022 20E0      		ldi r18,0
 168 0024 31E0      		ldi r19,lo8(1)
 169 0026 A901      		movw r20,r18
 170 0028 481B      		sub r20,r24
 171 002a 590B      		sbc r21,r25
 172 002c CA01      		movw r24,r20
 173 002e 0895      		ret
 174               	.L5:
 180:_commonCode_localized/sineTable/0.99/sineTable.c **** 		//negative=TRUE;
 181:_commonCode_localized/sineTable/0.99/sineTable.c **** 		//return -(sine_t)pgm_read_sine(sineTable[theta-SINE_SIZE2]); //256]);
 182:_commonCode_localized/sineTable/0.99/sineTable.c **** 	}
 183:_commonCode_localized/sineTable/0.99/sineTable.c **** 	//in the fourth quadrant, mirror both theta and the value and subtract the offset...
 184:_commonCode_localized/sineTable/0.99/sineTable.c **** 	else
 185:_commonCode_localized/sineTable/0.99/sineTable.c **** 	{
 186:_commonCode_localized/sineTable/0.99/sineTable.c **** 		theta=-(SINE_SIZE4-theta);
 175               		.stabn	68,0,186,.LM8-.LFBB1
 176               	.LM8:
 177 0030 9250      		subi r25,2
 178               	.L3:
 187:_commonCode_localized/sineTable/0.99/sineTable.c **** 		//negative=TRUE;
 188:_commonCode_localized/sineTable/0.99/sineTable.c **** 		//return -(sine_t)pgm_read_sine(sineTable[SINE_SIZE4-theta]); //512-theta]);
 189:_commonCode_localized/sineTable/0.99/sineTable.c **** 	}
 190:_commonCode_localized/sineTable/0.99/sineTable.c **** 
 191:_commonCode_localized/sineTable/0.99/sineTable.c **** 	return theta;
 192:_commonCode_localized/sineTable/0.99/sineTable.c **** }
 179               		.stabn	68,0,192,.LM9-.LFBB1
 180               	.LM9:
 181 0032 0895      		ret
 182               		.size	quadrantizeTheta, .-quadrantizeTheta
 183               	.Lscope1:
 184               		.stabs	"",36,0,0,.Lscope1-.LFBB1
 185               		.stabd	78,0,0
 186               		.stabs	"sineRaw:F(1,2)",36,0,207,sineRaw
 187               		.stabs	"theta:P(1,1)",64,0,207,24
 188               	.global	sineRaw
 189               		.type	sineRaw, @function
 190               	sineRaw:
 191               		.stabd	46,0,0
 193:_commonCode_localized/sineTable/0.99/sineTable.c **** 
 194:_commonCode_localized/sineTable/0.99/sineTable.c **** #if(!defined(SINE_DISABLE_SINERAW) || !SINE_DISABLE_SINERAW)
 195:_commonCode_localized/sineTable/0.99/sineTable.c **** //Stores the scaled sine-values... so calculations can be executed initially
 196:_commonCode_localized/sineTable/0.99/sineTable.c **** //  and retrieval can be quite quick...
 197:_commonCode_localized/sineTable/0.99/sineTable.c **** //  These values are scaled to match the axes AND amplitude
 198:_commonCode_localized/sineTable/0.99/sineTable.c **** //int32_t sineTable[129];
 199:_commonCode_localized/sineTable/0.99/sineTable.c **** 
 200:_commonCode_localized/sineTable/0.99/sineTable.c **** // [I think] Use pgm_read_dword(address_short) unless it's far... we'll have to determine that...
 201:_commonCode_localized/sineTable/0.99/sineTable.c **** // probably OK since it's in the same file... who knows.. .data vs .text?
 202:_commonCode_localized/sineTable/0.99/sineTable.c **** 
 203:_commonCode_localized/sineTable/0.99/sineTable.c **** 
 204:_commonCode_localized/sineTable/0.99/sineTable.c **** //theta is a value between 0 and 511 (representing an angle of 0-359.som'n deg)
 205:_commonCode_localized/sineTable/0.99/sineTable.c **** //   rollover/wraparound should work fine... (e.g. Sine(coord_t))
 206:_commonCode_localized/sineTable/0.99/sineTable.c **** //output is a value between -INT32_MAX and INT32_MAX (representing sin values -1 to 1)
 207:_commonCode_localized/sineTable/0.99/sineTable.c **** sine_t sineRaw(theta_t theta)
 208:_commonCode_localized/sineTable/0.99/sineTable.c **** {
GAS LISTING /var/folders/yG/yGnXnnFGGj4hKA71DL26EU+++TI/-Tmp-//ccGWPftp.s 			page 8


 192               		.stabn	68,0,208,.LM10-.LFBB2
 193               	.LM10:
 194               	.LFBB2:
 195               	/* prologue: function */
 196               	/* frame size = 0 */
 197               	/* stack size = 0 */
 198               	.L__stack_usage = 0
 209:_commonCode_localized/sineTable/0.99/sineTable.c **** 	uint8_t negative=FALSE;
 210:_commonCode_localized/sineTable/0.99/sineTable.c **** 
 211:_commonCode_localized/sineTable/0.99/sineTable.c **** 	theta = quadrantizeTheta(theta);
 199               		.stabn	68,0,211,.LM11-.LFBB2
 200               	.LM11:
 201 0034 0E94 0000 		call quadrantizeTheta
 212:_commonCode_localized/sineTable/0.99/sineTable.c **** /*
 213:_commonCode_localized/sineTable/0.99/sineTable.c **** //	theta %= 512;
 214:_commonCode_localized/sineTable/0.99/sineTable.c **** 	theta %= SINE_2PI;
 215:_commonCode_localized/sineTable/0.99/sineTable.c **** 
 216:_commonCode_localized/sineTable/0.99/sineTable.c **** 	if(theta < 0)
 217:_commonCode_localized/sineTable/0.99/sineTable.c **** 		theta = SINE_2PI + theta;
 218:_commonCode_localized/sineTable/0.99/sineTable.c **** 
 219:_commonCode_localized/sineTable/0.99/sineTable.c **** //For more accurate realtimeishness, it might be worthwhile to reverse this order...
 220:_commonCode_localized/sineTable/0.99/sineTable.c **** 	
 221:_commonCode_localized/sineTable/0.99/sineTable.c **** 	//in the first quadrant, just take the sine value from the table
 222:_commonCode_localized/sineTable/0.99/sineTable.c **** 	if(theta < SINE_SIZE-1) //128)
 223:_commonCode_localized/sineTable/0.99/sineTable.c **** 	{
 224:_commonCode_localized/sineTable/0.99/sineTable.c **** 		//theta = theta;
 225:_commonCode_localized/sineTable/0.99/sineTable.c **** 		//return pgm_read_sine(sineTable[theta]);
 226:_commonCode_localized/sineTable/0.99/sineTable.c **** 	}	
 227:_commonCode_localized/sineTable/0.99/sineTable.c **** 	//in the second quadrant, mirror theta and subtract the offset
 228:_commonCode_localized/sineTable/0.99/sineTable.c **** 	else if(theta < SINE_SIZE2) //256)
 229:_commonCode_localized/sineTable/0.99/sineTable.c **** 	{
 230:_commonCode_localized/sineTable/0.99/sineTable.c **** 		theta=SINE_SIZE2-theta;
 231:_commonCode_localized/sineTable/0.99/sineTable.c **** 		//return pgm_read_sine(sineTable[SINE_SIZE2-theta]); //256-theta]);
 232:_commonCode_localized/sineTable/0.99/sineTable.c **** 	}
 233:_commonCode_localized/sineTable/0.99/sineTable.c **** 	//in the third quadrant, mirror the value and subtract the offset
 234:_commonCode_localized/sineTable/0.99/sineTable.c **** 	else if(theta < SINE_SIZE3) //384)
 235:_commonCode_localized/sineTable/0.99/sineTable.c **** 	{
 236:_commonCode_localized/sineTable/0.99/sineTable.c **** 		theta=theta-SINE_SIZE2;
 237:_commonCode_localized/sineTable/0.99/sineTable.c **** 		negative=TRUE;
 238:_commonCode_localized/sineTable/0.99/sineTable.c **** 		//return -(sine_t)pgm_read_sine(sineTable[theta-SINE_SIZE2]); //256]);
 239:_commonCode_localized/sineTable/0.99/sineTable.c **** 	}
 240:_commonCode_localized/sineTable/0.99/sineTable.c **** 	//in the fourth quadrant, mirror both theta and the value and subtract the offset...
 241:_commonCode_localized/sineTable/0.99/sineTable.c **** 	else
 242:_commonCode_localized/sineTable/0.99/sineTable.c **** 	{
 243:_commonCode_localized/sineTable/0.99/sineTable.c **** 		theta=SINE_SIZE4-theta;
 244:_commonCode_localized/sineTable/0.99/sineTable.c **** 		negative=TRUE;
 245:_commonCode_localized/sineTable/0.99/sineTable.c **** 		//return -(sine_t)pgm_read_sine(sineTable[SINE_SIZE4-theta]); //512-theta]);
 246:_commonCode_localized/sineTable/0.99/sineTable.c **** 	}
 247:_commonCode_localized/sineTable/0.99/sineTable.c **** 
 248:_commonCode_localized/sineTable/0.99/sineTable.c **** 	//This reduced code-size from 3860 to 3838
 249:_commonCode_localized/sineTable/0.99/sineTable.c **** */
 250:_commonCode_localized/sineTable/0.99/sineTable.c **** 	//adding quadrantizeTheta increased it to 3844
 251:_commonCode_localized/sineTable/0.99/sineTable.c **** 	// but should be dramatic in combination with sineRaw8
 252:_commonCode_localized/sineTable/0.99/sineTable.c **** 	if(theta < 0)
 202               		.stabn	68,0,252,.LM12-.LFBB2
 203               	.LM12:
 204 0038 97FF      		sbrs r25,7
GAS LISTING /var/folders/yG/yGnXnnFGGj4hKA71DL26EU+++TI/-Tmp-//ccGWPftp.s 			page 9


 205 003a 00C0      		rjmp .L11
 253:_commonCode_localized/sineTable/0.99/sineTable.c **** 	{
 254:_commonCode_localized/sineTable/0.99/sineTable.c **** 		theta = -theta;
 206               		.stabn	68,0,254,.LM13-.LFBB2
 207               	.LM13:
 208 003c 9195      		neg r25
 209 003e 8195      		neg r24
 210 0040 9109      		sbc r25,__zero_reg__
 255:_commonCode_localized/sineTable/0.99/sineTable.c **** 		negative=TRUE;
 211               		.stabn	68,0,255,.LM14-.LFBB2
 212               	.LM14:
 213 0042 21E0      		ldi r18,lo8(1)
 214 0044 00C0      		rjmp .L9
 215               	.L11:
 209:_commonCode_localized/sineTable/0.99/sineTable.c **** 
 216               		.stabn	68,0,209,.LM15-.LFBB2
 217               	.LM15:
 218 0046 20E0      		ldi r18,0
 219               	.L9:
 220               	.LBB2:
 256:_commonCode_localized/sineTable/0.99/sineTable.c **** 	}
 257:_commonCode_localized/sineTable/0.99/sineTable.c **** 
 258:_commonCode_localized/sineTable/0.99/sineTable.c **** 	sine_t sine=pgm_read_sine(sineTable[theta]);
 221               		.stabn	68,0,258,.LM16-.LFBB2
 222               	.LM16:
 223 0048 FC01      		movw r30,r24
 224 004a EE0F      		lsl r30
 225 004c FF1F      		rol r31
 226 004e E050      		subi r30,lo8(-(sineTable))
 227 0050 F040      		sbci r31,hi8(-(sineTable))
 228               	.LBE2:
 229               	/* #APP */
 230               	 ;  258 "_commonCode_localized/sineTable/0.99/sineTable.c" 1
 231 0052 8591      		lpm r24, Z+
 232 0054 9491      		lpm r25, Z
 233               		
 234               	 ;  0 "" 2
 259:_commonCode_localized/sineTable/0.99/sineTable.c **** 	
 260:_commonCode_localized/sineTable/0.99/sineTable.c **** 	if(negative)
 235               		.stabn	68,0,260,.LM17-.LFBB2
 236               	.LM17:
 237               	/* #NOAPP */
 238 0056 2223      		tst r18
 239 0058 01F0      		breq .L10
 261:_commonCode_localized/sineTable/0.99/sineTable.c **** 		sine = -sine;
 240               		.stabn	68,0,261,.LM18-.LFBB2
 241               	.LM18:
 242 005a 9195      		neg r25
 243 005c 8195      		neg r24
 244 005e 9109      		sbc r25,__zero_reg__
 245               	.L10:
 262:_commonCode_localized/sineTable/0.99/sineTable.c **** 	return sine;
 263:_commonCode_localized/sineTable/0.99/sineTable.c **** }
 246               		.stabn	68,0,263,.LM19-.LFBB2
 247               	.LM19:
 248 0060 0895      		ret
 249               		.size	sineRaw, .-sineRaw
GAS LISTING /var/folders/yG/yGnXnnFGGj4hKA71DL26EU+++TI/-Tmp-//ccGWPftp.s 			page 10


 250               		.stabs	"negative:r(4,2)",64,0,209,18
 251               		.stabs	"sine:r(1,2)",64,0,258,24
 252               		.stabn	192,0,0,.LFBB2-.LFBB2
 253               		.stabs	"__addr16:r(4,4)",64,0,258,30
 254               		.stabn	192,0,0,.LBB2-.LFBB2
 255               		.stabn	224,0,0,.LBE2-.LFBB2
 256               		.stabn	224,0,0,.Lscope2-.LFBB2
 257               	.Lscope2:
 258               		.stabs	"",36,0,0,.Lscope2-.LFBB2
 259               		.stabd	78,0,0
 260               		.stabs	"sineRaw8:F(4,1)",36,0,267,sineRaw8
 261               		.stabs	"theta:P(1,1)",64,0,267,24
 262               	.global	sineRaw8
 263               		.type	sineRaw8, @function
 264               	sineRaw8:
 265               		.stabd	46,0,0
 264:_commonCode_localized/sineTable/0.99/sineTable.c **** #endif
 265:_commonCode_localized/sineTable/0.99/sineTable.c **** 
 266:_commonCode_localized/sineTable/0.99/sineTable.c **** #if ( defined(SINE_RAW8) && SINE_RAW8 )
 267:_commonCode_localized/sineTable/0.99/sineTable.c **** int8_t sineRaw8(theta_t theta)
 268:_commonCode_localized/sineTable/0.99/sineTable.c **** {
 266               		.stabn	68,0,268,.LM20-.LFBB3
 267               	.LM20:
 268               	.LFBB3:
 269               	/* prologue: function */
 270               	/* frame size = 0 */
 271               	/* stack size = 0 */
 272               	.L__stack_usage = 0
 269:_commonCode_localized/sineTable/0.99/sineTable.c **** 	/*
 270:_commonCode_localized/sineTable/0.99/sineTable.c **** 	theta %= SINE_2PI;
 271:_commonCode_localized/sineTable/0.99/sineTable.c **** 
 272:_commonCode_localized/sineTable/0.99/sineTable.c **** 	if(theta < 0)
 273:_commonCode_localized/sineTable/0.99/sineTable.c **** 		theta = SINE_2PI + theta;
 274:_commonCode_localized/sineTable/0.99/sineTable.c **** 
 275:_commonCode_localized/sineTable/0.99/sineTable.c **** 	if(theta < SINE_SIZE-1)
 276:_commonCode_localized/sineTable/0.99/sineTable.c **** 		return pgm_read_sine8(sineTable[theta]);
 277:_commonCode_localized/sineTable/0.99/sineTable.c ****    else if(theta < SINE_SIZE2) //256)
 278:_commonCode_localized/sineTable/0.99/sineTable.c **** 		return pgm_read_sine8(sineTable[SINE_SIZE2-theta]); //256-theta]);
 279:_commonCode_localized/sineTable/0.99/sineTable.c **** 	else if(theta < SINE_SIZE3) //384)
 280:_commonCode_localized/sineTable/0.99/sineTable.c **** 		return -(int8_t)pgm_read_sine8(sineTable[theta-SINE_SIZE2]); //256]);
 281:_commonCode_localized/sineTable/0.99/sineTable.c **** 	else
 282:_commonCode_localized/sineTable/0.99/sineTable.c **** 	   return -(int8_t)pgm_read_sine8(sineTable[SINE_SIZE4-theta]); 
 283:_commonCode_localized/sineTable/0.99/sineTable.c **** 	*/
 284:_commonCode_localized/sineTable/0.99/sineTable.c **** 
 285:_commonCode_localized/sineTable/0.99/sineTable.c **** 	//And doing this here, reduced from 3844 to 3770
 286:_commonCode_localized/sineTable/0.99/sineTable.c **** 	uint8_t negative = FALSE;
 287:_commonCode_localized/sineTable/0.99/sineTable.c **** 	theta=quadrantizeTheta(theta);
 273               		.stabn	68,0,287,.LM21-.LFBB3
 274               	.LM21:
 275 0062 0E94 0000 		call quadrantizeTheta
 288:_commonCode_localized/sineTable/0.99/sineTable.c **** 
 289:_commonCode_localized/sineTable/0.99/sineTable.c **** 	if(theta < 0)
 276               		.stabn	68,0,289,.LM22-.LFBB3
 277               	.LM22:
 278 0066 97FF      		sbrs r25,7
 279 0068 00C0      		rjmp .L19
 290:_commonCode_localized/sineTable/0.99/sineTable.c **** 	{
GAS LISTING /var/folders/yG/yGnXnnFGGj4hKA71DL26EU+++TI/-Tmp-//ccGWPftp.s 			page 11


 291:_commonCode_localized/sineTable/0.99/sineTable.c **** 		theta = -theta;
 280               		.stabn	68,0,291,.LM23-.LFBB3
 281               	.LM23:
 282 006a 9195      		neg r25
 283 006c 8195      		neg r24
 284 006e 9109      		sbc r25,__zero_reg__
 292:_commonCode_localized/sineTable/0.99/sineTable.c **** 		negative = TRUE;
 285               		.stabn	68,0,292,.LM24-.LFBB3
 286               	.LM24:
 287 0070 21E0      		ldi r18,lo8(1)
 288 0072 00C0      		rjmp .L16
 289               	.L19:
 286:_commonCode_localized/sineTable/0.99/sineTable.c **** 	theta=quadrantizeTheta(theta);
 290               		.stabn	68,0,286,.LM25-.LFBB3
 291               	.LM25:
 292 0074 20E0      		ldi r18,0
 293               	.L16:
 294               	.LBB3:
 293:_commonCode_localized/sineTable/0.99/sineTable.c **** 	}
 294:_commonCode_localized/sineTable/0.99/sineTable.c **** 
 295:_commonCode_localized/sineTable/0.99/sineTable.c **** 	int8_t sine=pgm_read_sine8(sineTable[theta]);
 295               		.stabn	68,0,295,.LM26-.LFBB3
 296               	.LM26:
 297 0076 FC01      		movw r30,r24
 298 0078 EE0F      		lsl r30
 299 007a FF1F      		rol r31
 300 007c E050      		subi r30,lo8(-(sineTable+1))
 301 007e F040      		sbci r31,hi8(-(sineTable+1))
 302               	/* #APP */
 303               	 ;  295 "_commonCode_localized/sineTable/0.99/sineTable.c" 1
 304 0080 8491      		lpm r24, Z
 305               		
 306               	 ;  0 "" 2
 307               	/* #NOAPP */
 308               	.LBE3:
 296:_commonCode_localized/sineTable/0.99/sineTable.c **** 
 297:_commonCode_localized/sineTable/0.99/sineTable.c **** 	if(negative)
 309               		.stabn	68,0,297,.LM27-.LFBB3
 310               	.LM27:
 311 0082 2111      		cpse r18,__zero_reg__
 298:_commonCode_localized/sineTable/0.99/sineTable.c **** 		sine = -sine;
 312               		.stabn	68,0,298,.LM28-.LFBB3
 313               	.LM28:
 314 0084 8195      		neg r24
 315               	.L18:
 299:_commonCode_localized/sineTable/0.99/sineTable.c **** 	return sine;
 300:_commonCode_localized/sineTable/0.99/sineTable.c **** }
 316               		.stabn	68,0,300,.LM29-.LFBB3
 317               	.LM29:
 318 0086 0895      		ret
 319               		.size	sineRaw8, .-sineRaw8
 320               		.stabs	"negative:r(4,2)",64,0,286,18
 321               		.stabs	"sine:r(4,1)",64,0,295,24
 322               		.stabn	192,0,0,.LFBB3-.LFBB3
 323               		.stabn	224,0,0,.Lscope3-.LFBB3
 324               	.Lscope3:
 325               		.stabs	"",36,0,0,.Lscope3-.LFBB3
GAS LISTING /var/folders/yG/yGnXnnFGGj4hKA71DL26EU+++TI/-Tmp-//ccGWPftp.s 			page 12


 326               		.stabd	78,0,0
 327               	.global	sineTable
 328               		.section	.progmem.data,"a",@progbits
 329               		.type	sineTable, @object
 330               		.size	sineTable, 258
 331               	sineTable:
 332 0000 0000      		.word	0
 333 0002 9201      		.word	402
 334 0004 2403      		.word	804
 335 0006 B604      		.word	1206
 336 0008 4806      		.word	1608
 337 000a D907      		.word	2009
 338 000c 6A09      		.word	2410
 339 000e FB0A      		.word	2811
 340 0010 8C0C      		.word	3212
 341 0012 1C0E      		.word	3612
 342 0014 AB0F      		.word	4011
 343 0016 3A11      		.word	4410
 344 0018 C812      		.word	4808
 345 001a 5514      		.word	5205
 346 001c E215      		.word	5602
 347 001e 6E17      		.word	5998
 348 0020 F918      		.word	6393
 349 0022 821A      		.word	6786
 350 0024 0B1C      		.word	7179
 351 0026 931D      		.word	7571
 352 0028 1A1F      		.word	7962
 353 002a 9F20      		.word	8351
 354 002c 2322      		.word	8739
 355 002e A623      		.word	9126
 356 0030 2825      		.word	9512
 357 0032 A826      		.word	9896
 358 0034 2628      		.word	10278
 359 0036 A329      		.word	10659
 360 0038 1F2B      		.word	11039
 361 003a 992C      		.word	11417
 362 003c 112E      		.word	11793
 363 003e 872F      		.word	12167
 364 0040 FB30      		.word	12539
 365 0042 6E32      		.word	12910
 366 0044 DF33      		.word	13279
 367 0046 4D35      		.word	13645
 368 0048 BA36      		.word	14010
 369 004a 2438      		.word	14372
 370 004c 8C39      		.word	14732
 371 004e F23A      		.word	15090
 372 0050 563C      		.word	15446
 373 0052 B83D      		.word	15800
 374 0054 173F      		.word	16151
 375 0056 7340      		.word	16499
 376 0058 CE41      		.word	16846
 377 005a 2543      		.word	17189
 378 005c 7A44      		.word	17530
 379 005e CD45      		.word	17869
 380 0060 1C47      		.word	18204
 381 0062 6948      		.word	18537
 382 0064 B449      		.word	18868
GAS LISTING /var/folders/yG/yGnXnnFGGj4hKA71DL26EU+++TI/-Tmp-//ccGWPftp.s 			page 13


 383 0066 FB4A      		.word	19195
 384 0068 3F4C      		.word	19519
 385 006a 814D      		.word	19841
 386 006c BF4E      		.word	20159
 387 006e FB4F      		.word	20475
 388 0070 3351      		.word	20787
 389 0072 6852      		.word	21096
 390 0074 9B53      		.word	21403
 391 0076 C954      		.word	21705
 392 0078 F555      		.word	22005
 393 007a 1D57      		.word	22301
 394 007c 4258      		.word	22594
 395 007e 6459      		.word	22884
 396 0080 825A      		.word	23170
 397 0082 9C5B      		.word	23452
 398 0084 B35C      		.word	23731
 399 0086 C75D      		.word	24007
 400 0088 D75E      		.word	24279
 401 008a E35F      		.word	24547
 402 008c EB60      		.word	24811
 403 008e F061      		.word	25072
 404 0090 F162      		.word	25329
 405 0092 EE63      		.word	25582
 406 0094 E864      		.word	25832
 407 0096 DD65      		.word	26077
 408 0098 CF66      		.word	26319
 409 009a BC67      		.word	26556
 410 009c A668      		.word	26790
 411 009e 8B69      		.word	27019
 412 00a0 6D6A      		.word	27245
 413 00a2 4A6B      		.word	27466
 414 00a4 236C      		.word	27683
 415 00a6 F86C      		.word	27896
 416 00a8 C96D      		.word	28105
 417 00aa 966E      		.word	28310
 418 00ac 5E6F      		.word	28510
 419 00ae 2270      		.word	28706
 420 00b0 E270      		.word	28898
 421 00b2 9D71      		.word	29085
 422 00b4 5472      		.word	29268
 423 00b6 0773      		.word	29447
 424 00b8 B573      		.word	29621
 425 00ba 5F74      		.word	29791
 426 00bc 0475      		.word	29956
 427 00be A575      		.word	30117
 428 00c0 4176      		.word	30273
 429 00c2 D876      		.word	30424
 430 00c4 6B77      		.word	30571
 431 00c6 FA77      		.word	30714
 432 00c8 8478      		.word	30852
 433 00ca 0979      		.word	30985
 434 00cc 8979      		.word	31113
 435 00ce 057A      		.word	31237
 436 00d0 7C7A      		.word	31356
 437 00d2 EE7A      		.word	31470
 438 00d4 5C7B      		.word	31580
 439 00d6 C57B      		.word	31685
GAS LISTING /var/folders/yG/yGnXnnFGGj4hKA71DL26EU+++TI/-Tmp-//ccGWPftp.s 			page 14


 440 00d8 297C      		.word	31785
 441 00da 887C      		.word	31880
 442 00dc E37C      		.word	31971
 443 00de 397D      		.word	32057
 444 00e0 897D      		.word	32137
 445 00e2 D57D      		.word	32213
 446 00e4 1D7E      		.word	32285
 447 00e6 5F7E      		.word	32351
 448 00e8 9C7E      		.word	32412
 449 00ea D57E      		.word	32469
 450 00ec 097F      		.word	32521
 451 00ee 377F      		.word	32567
 452 00f0 617F      		.word	32609
 453 00f2 867F      		.word	32646
 454 00f4 A67F      		.word	32678
 455 00f6 C17F      		.word	32705
 456 00f8 D87F      		.word	32728
 457 00fa E97F      		.word	32745
 458 00fc F57F      		.word	32757
 459 00fe FD7F      		.word	32765
 460 0100 FF7F      		.word	32767
 461               		.stabs	"sineTable:G(0,48)=ar(0,49)=r(0,49);0;0177777;;0;128;(0,50)=k(1,1)",32,0,49,0
 462               		.text
 463               		.stabs	"",100,0,0,.Letext0
 464               	.Letext0:
 465               		.ident	"GCC: (GNU) 4.8.2"
GAS LISTING /var/folders/yG/yGnXnnFGGj4hKA71DL26EU+++TI/-Tmp-//ccGWPftp.s 			page 15


DEFINED SYMBOLS
                            *ABS*:00000000 sineTable.c
/var/folders/yG/yGnXnnFGGj4hKA71DL26EU+++TI/-Tmp-//ccGWPftp.s:2      *ABS*:0000003e __SP_H__
/var/folders/yG/yGnXnnFGGj4hKA71DL26EU+++TI/-Tmp-//ccGWPftp.s:3      *ABS*:0000003d __SP_L__
/var/folders/yG/yGnXnnFGGj4hKA71DL26EU+++TI/-Tmp-//ccGWPftp.s:4      *ABS*:0000003f __SREG__
/var/folders/yG/yGnXnnFGGj4hKA71DL26EU+++TI/-Tmp-//ccGWPftp.s:5      *ABS*:00000000 __tmp_reg__
/var/folders/yG/yGnXnnFGGj4hKA71DL26EU+++TI/-Tmp-//ccGWPftp.s:6      *ABS*:00000001 __zero_reg__
/var/folders/yG/yGnXnnFGGj4hKA71DL26EU+++TI/-Tmp-//ccGWPftp.s:126    .text:00000000 quadrantizeTheta
/var/folders/yG/yGnXnnFGGj4hKA71DL26EU+++TI/-Tmp-//ccGWPftp.s:190    .text:00000034 sineRaw
/var/folders/yG/yGnXnnFGGj4hKA71DL26EU+++TI/-Tmp-//ccGWPftp.s:331    .progmem.data:00000000 sineTable
/var/folders/yG/yGnXnnFGGj4hKA71DL26EU+++TI/-Tmp-//ccGWPftp.s:264    .text:00000062 sineRaw8

UNDEFINED SYMBOLS
__divmodhi4
