Archive member included because of file (symbol)

/opt/local/lib/gcc/avr/4.8.2/avr5/libgcc.a(_mulsi3.o)
                              _BUILD/_commonCode_localized/xyTracker/3.05/xyTracker.o (__mulsi3)
/opt/local/lib/gcc/avr/4.8.2/avr5/libgcc.a(_udivmodhi4.o)
                              _BUILD/_commonCode_localized/heartbeat/1.30/heartbeat.o (__udivmodhi4)
/opt/local/lib/gcc/avr/4.8.2/avr5/libgcc.a(_divmodhi4.o)
                              _BUILD/_commonCode_localized/heartbeat/1.30/heartbeat.o (__divmodhi4)
/opt/local/lib/gcc/avr/4.8.2/avr5/libgcc.a(_udivmodsi4.o)
                              _BUILD/_commonCode_localized/xyTracker/3.05/xyTracker.o (__udivmodsi4)
/opt/local/lib/gcc/avr/4.8.2/avr5/libgcc.a(_exit.o)
                              /opt/local/lib/gcc/avr/4.8.2/../../../../avr/lib/avr5/crt90pwm161.o (exit)
/opt/local/lib/gcc/avr/4.8.2/avr5/libgcc.a(_copy_data.o)
                              _BUILD/_commonCode_localized/heartbeat/1.30/heartbeat.o (__do_copy_data)
/opt/local/lib/gcc/avr/4.8.2/avr5/libgcc.a(_clear_bss.o)
                              _BUILD/_commonCode_localized/heartbeat/1.30/heartbeat.o (__do_clear_bss)
/opt/local/lib/gcc/avr/4.8.2/avr5/libgcc.a(_muluhisi3.o)
                              /opt/local/lib/gcc/avr/4.8.2/avr5/libgcc.a(_mulsi3.o) (__muluhisi3)
/opt/local/lib/gcc/avr/4.8.2/avr5/libgcc.a(_umulhisi3.o)
                              /opt/local/lib/gcc/avr/4.8.2/avr5/libgcc.a(_muluhisi3.o) (__umulhisi3)

Allocating common symbols
Common symbol       size              file

dmsLine             0x15              _BUILD/_commonCode_localized/dmsTimer/1.13/dmsTimer.o
heartModulator      0x4               _BUILD/_commonCode_localized/heartbeat/1.30/heartbeat.o
frameBuffer         0x100             _BUILD/main.o

Memory Configuration

Name             Origin             Length             Attributes
text             0x00000000         0x00020000         xr
data             0x00800060         0x0000ffa0         rw !x
eeprom           0x00810000         0x00010000         rw !x
fuse             0x00820000         0x00000400         rw !x
lock             0x00830000         0x00000400         rw !x
signature        0x00840000         0x00000400         rw !x
*default*        0x00000000         0xffffffff

Linker script and memory map

Address of section .data set to 0x800100
LOAD /opt/local/lib/gcc/avr/4.8.2/../../../../avr/lib/avr5/crt90pwm161.o
LOAD _BUILD/_commonCode_localized/hfModulation/1.00/hfModulation.o
LOAD _BUILD/_commonCode_localized/adc/0.20/adc.o
LOAD _BUILD/_commonCode_localized/timerCommon/1.22/timerCommon.o
LOAD _BUILD/_commonCode_localized/heartbeat/1.30/heartbeat.o
LOAD _BUILD/_commonCode_localized/dmsTimer/1.13/dmsTimer.o
LOAD _BUILD/_commonCode_localized/coordStuff/0.90/coordStuff.o
LOAD _BUILD/_commonCode_localized/xyTracker/3.05/xyTracker.o
LOAD _BUILD/_commonCode_localized/sineTable/0.99/sineTable.o
LOAD _BUILD/main.o
START GROUP
LOAD /opt/local/lib/gcc/avr/4.8.2/avr5/libgcc.a
LOAD /opt/local/lib/gcc/avr/4.8.2/../../../../avr/lib/avr5/libm.a
LOAD /opt/local/lib/gcc/avr/4.8.2/../../../../avr/lib/avr5/libc.a
END GROUP

.hash
 *(.hash)

.dynsym
 *(.dynsym)

.dynstr
 *(.dynstr)

.gnu.version
 *(.gnu.version)

.gnu.version_d
 *(.gnu.version_d)

.gnu.version_r
 *(.gnu.version_r)

.rel.init
 *(.rel.init)

.rela.init
 *(.rela.init)

.rel.text
 *(.rel.text)
 *(.rel.text.*)
 *(.rel.gnu.linkonce.t*)

.rela.text
 *(.rela.text)
 *(.rela.text.*)
 *(.rela.gnu.linkonce.t*)

.rel.fini
 *(.rel.fini)

.rela.fini
 *(.rela.fini)

.rel.rodata
 *(.rel.rodata)
 *(.rel.rodata.*)
 *(.rel.gnu.linkonce.r*)

.rela.rodata
 *(.rela.rodata)
 *(.rela.rodata.*)
 *(.rela.gnu.linkonce.r*)

.rel.data
 *(.rel.data)
 *(.rel.data.*)
 *(.rel.gnu.linkonce.d*)

.rela.data
 *(.rela.data)
 *(.rela.data.*)
 *(.rela.gnu.linkonce.d*)

.rel.ctors
 *(.rel.ctors)

.rela.ctors
 *(.rela.ctors)

.rel.dtors
 *(.rel.dtors)

.rela.dtors
 *(.rela.dtors)

.rel.got
 *(.rel.got)

.rela.got
 *(.rela.got)

.rel.bss
 *(.rel.bss)

.rela.bss
 *(.rela.bss)

.rel.plt
 *(.rel.plt)

.rela.plt
 *(.rela.plt)

.text           0x00000000     0x187a
 *(.vectors)
 .vectors       0x00000000       0x50 /opt/local/lib/gcc/avr/4.8.2/../../../../avr/lib/avr5/crt90pwm161.o
                0x00000000                __vectors
                0x00000000                __vector_default
 *(.vectors)
 *(.progmem.gcc*)
                0x00000050                . = ALIGN (0x2)
                0x00000050                __trampolines_start = .
 *(.trampolines)
 .trampolines   0x00000050        0x0 linker stubs
 *(.trampolines*)
                0x00000050                __trampolines_end = .
 *(.progmem*)
 .progmem.data  0x00000050      0x102 _BUILD/_commonCode_localized/sineTable/0.99/sineTable.o
                0x00000050                sineTable
 .progmem.data  0x00000152      0x524 _BUILD/main.o
                0x00000152                pgm_image2
                0x00000252                pgm_image1
                0x00000352                characters
                0x00000652                header
                0x00000676                . = ALIGN (0x2)
 *(.jumptables)
 *(.jumptables*)
 *(.lowtext)
 *(.lowtext*)
                0x00000676                __ctors_start = .
 *(.ctors)
                0x00000676                __ctors_end = .
                0x00000676                __dtors_start = .
 *(.dtors)
                0x00000676                __dtors_end = .
 SORT(*)(.ctors)
 SORT(*)(.dtors)
 *(.init0)
 .init0         0x00000676        0x0 /opt/local/lib/gcc/avr/4.8.2/../../../../avr/lib/avr5/crt90pwm161.o
                0x00000676                __init
 *(.init0)
 *(.init1)
 *(.init1)
 *(.init2)
 .init2         0x00000676        0xc /opt/local/lib/gcc/avr/4.8.2/../../../../avr/lib/avr5/crt90pwm161.o
 *(.init2)
 *(.init3)
 *(.init3)
 *(.init4)
 .init4         0x00000682       0x16 /opt/local/lib/gcc/avr/4.8.2/avr5/libgcc.a(_copy_data.o)
                0x00000682                __do_copy_data
 .init4         0x00000698       0x10 /opt/local/lib/gcc/avr/4.8.2/avr5/libgcc.a(_clear_bss.o)
                0x00000698                __do_clear_bss
 *(.init4)
 *(.init5)
 *(.init5)
 *(.init6)
 *(.init6)
 *(.init7)
 *(.init7)
 *(.init8)
 *(.init8)
 *(.init9)
 .init9         0x000006a8        0x8 /opt/local/lib/gcc/avr/4.8.2/../../../../avr/lib/avr5/crt90pwm161.o
 *(.init9)
 *(.text)
 .text          0x000006b0        0x4 /opt/local/lib/gcc/avr/4.8.2/../../../../avr/lib/avr5/crt90pwm161.o
                0x000006b0                __vector_18
                0x000006b0                __vector_12
                0x000006b0                __bad_interrupt
                0x000006b0                __vector_6
                0x000006b0                __vector_3
                0x000006b0                __vector_13
                0x000006b0                __vector_17
                0x000006b0                __vector_19
                0x000006b0                __vector_7
                0x000006b0                __vector_5
                0x000006b0                __vector_4
                0x000006b0                __vector_9
                0x000006b0                __vector_2
                0x000006b0                __vector_15
                0x000006b0                __vector_8
                0x000006b0                __vector_14
                0x000006b0                __vector_10
                0x000006b0                __vector_16
                0x000006b0                __vector_1
 .text          0x000006b4       0x4e _BUILD/_commonCode_localized/hfModulation/1.00/hfModulation.o
                0x000006b4                hfm_setPower
                0x000006c6                hfm_setup
                0x000006d2                hfm_nextOutput
 .text          0x00000702       0x7e _BUILD/_commonCode_localized/adc/0.20/adc.o
                0x00000702                adc_select
                0x0000070e                adc_getValue
                0x00000714                adc_isBusy
                0x0000071e                adc_startConversion
                0x0000072e                adc_setPrescaler
                0x0000073a                adc_init
                0x00000762                adc_takeInput
 .text          0x00000780       0x98 _BUILD/_commonCode_localized/timerCommon/1.22/timerCommon.o
                0x00000780                timer_selectDivisor
                0x0000079c                timer_setWGM
                0x000007c6                timer_init
                0x000007f4                timer_compareMatchIntSetup
 .text          0x00000818      0x1de _BUILD/_commonCode_localized/heartbeat/1.30/heartbeat.o
                0x00000818                setHeartRate
                0x00000834                getHeartRate
                0x00000848                heartClear
                0x00000852                init_heartBeat
                0x00000870                set_heartBlink
                0x00000876                blinkHeart
                0x00000930                heartUpdate
                0x000009dc                heartupdate
                0x000009e0                heartPinInputPoll
 .text          0x000009f6       0x92 _BUILD/_commonCode_localized/dmsTimer/1.13/dmsTimer.o
                0x000009f6                dmsWaitFn
 .text          0x00000a88       0xfe _BUILD/_commonCode_localized/coordStuff/0.90/coordStuff.o
                0x00000a88                coord_abs
                0x00000ab2                coord_max
                0x00000ac2                coord_sign
                0x00000ae2                coord_limit
                0x00000b34                ucoord_limit
 .text          0x00000b86      0x1ee _BUILD/_commonCode_localized/xyTracker/3.05/xyTracker.o
                0x00000b86                xyt_init
                0x00000cbc                xyt_update
                0x00000d68                xyt_remainder
 .text          0x00000d74       0x88 _BUILD/_commonCode_localized/sineTable/0.99/sineTable.o
                0x00000d74                quadrantizeTheta
                0x00000da8                sineRaw
                0x00000dd6                sineRaw8
 .text          0x00000dfc      0x95e _BUILD/main.o
                0x00000dfc                pll_enable
                0x00000e2c                lvds_timerInit
                0x00000eb4                setColor
                0x00000ef2                frameBufferInit
                0x00000ef4                smileyUpdate
                0x00000fac                nonRSB_drawPix
                0x00001512                lcd_Init
                0x0000152c                updateLCD
                0x0000168a                __vector_11
                0x00001710                init_hsyncTimer
                0x00001736                isNewFrame
                0x0000174e                frameBufferUpdate
 .text          0x0000175a        0x0 /opt/local/lib/gcc/avr/4.8.2/avr5/libgcc.a(_mulsi3.o)
 .text          0x0000175a        0x0 /opt/local/lib/gcc/avr/4.8.2/avr5/libgcc.a(_udivmodhi4.o)
 .text          0x0000175a        0x0 /opt/local/lib/gcc/avr/4.8.2/avr5/libgcc.a(_divmodhi4.o)
 .text          0x0000175a        0x0 /opt/local/lib/gcc/avr/4.8.2/avr5/libgcc.a(_udivmodsi4.o)
 .text          0x0000175a        0x0 /opt/local/lib/gcc/avr/4.8.2/avr5/libgcc.a(_exit.o)
 .text          0x0000175a        0x0 /opt/local/lib/gcc/avr/4.8.2/avr5/libgcc.a(_copy_data.o)
 .text          0x0000175a        0x0 /opt/local/lib/gcc/avr/4.8.2/avr5/libgcc.a(_clear_bss.o)
 .text          0x0000175a        0x0 /opt/local/lib/gcc/avr/4.8.2/avr5/libgcc.a(_muluhisi3.o)
 .text          0x0000175a        0x0 /opt/local/lib/gcc/avr/4.8.2/avr5/libgcc.a(_umulhisi3.o)
                0x0000175a                . = ALIGN (0x2)
 *(.text.*)
 .text.startup  0x0000175a       0x34 _BUILD/main.o
                0x0000175a                main
 .text.libgcc.mul
                0x0000178e       0x20 /opt/local/lib/gcc/avr/4.8.2/avr5/libgcc.a(_mulsi3.o)
                0x0000178e                __mulsi3
 .text.libgcc.div
                0x000017ae        0x0 /opt/local/lib/gcc/avr/4.8.2/avr5/libgcc.a(_mulsi3.o)
 .text.libgcc   0x000017ae        0x0 /opt/local/lib/gcc/avr/4.8.2/avr5/libgcc.a(_mulsi3.o)
 .text.libgcc.prologue
                0x000017ae        0x0 /opt/local/lib/gcc/avr/4.8.2/avr5/libgcc.a(_mulsi3.o)
 .text.libgcc.builtins
                0x000017ae        0x0 /opt/local/lib/gcc/avr/4.8.2/avr5/libgcc.a(_mulsi3.o)
 .text.libgcc.fmul
                0x000017ae        0x0 /opt/local/lib/gcc/avr/4.8.2/avr5/libgcc.a(_mulsi3.o)
 .text.libgcc.fixed
                0x000017ae        0x0 /opt/local/lib/gcc/avr/4.8.2/avr5/libgcc.a(_mulsi3.o)
 .text.libgcc.mul
                0x000017ae        0x0 /opt/local/lib/gcc/avr/4.8.2/avr5/libgcc.a(_udivmodhi4.o)
 .text.libgcc.div
                0x000017ae       0x28 /opt/local/lib/gcc/avr/4.8.2/avr5/libgcc.a(_udivmodhi4.o)
                0x000017ae                __udivmodhi4
 .text.libgcc   0x000017d6        0x0 /opt/local/lib/gcc/avr/4.8.2/avr5/libgcc.a(_udivmodhi4.o)
 .text.libgcc.prologue
                0x000017d6        0x0 /opt/local/lib/gcc/avr/4.8.2/avr5/libgcc.a(_udivmodhi4.o)
 .text.libgcc.builtins
                0x000017d6        0x0 /opt/local/lib/gcc/avr/4.8.2/avr5/libgcc.a(_udivmodhi4.o)
 .text.libgcc.fmul
                0x000017d6        0x0 /opt/local/lib/gcc/avr/4.8.2/avr5/libgcc.a(_udivmodhi4.o)
 .text.libgcc.fixed
                0x000017d6        0x0 /opt/local/lib/gcc/avr/4.8.2/avr5/libgcc.a(_udivmodhi4.o)
 .text.libgcc.mul
                0x000017d6        0x0 /opt/local/lib/gcc/avr/4.8.2/avr5/libgcc.a(_divmodhi4.o)
 .text.libgcc.div
                0x000017d6       0x28 /opt/local/lib/gcc/avr/4.8.2/avr5/libgcc.a(_divmodhi4.o)
                0x000017d6                __divmodhi4
                0x000017d6                _div
 .text.libgcc   0x000017fe        0x0 /opt/local/lib/gcc/avr/4.8.2/avr5/libgcc.a(_divmodhi4.o)
 .text.libgcc.prologue
                0x000017fe        0x0 /opt/local/lib/gcc/avr/4.8.2/avr5/libgcc.a(_divmodhi4.o)
 .text.libgcc.builtins
                0x000017fe        0x0 /opt/local/lib/gcc/avr/4.8.2/avr5/libgcc.a(_divmodhi4.o)
 .text.libgcc.fmul
                0x000017fe        0x0 /opt/local/lib/gcc/avr/4.8.2/avr5/libgcc.a(_divmodhi4.o)
 .text.libgcc.fixed
                0x000017fe        0x0 /opt/local/lib/gcc/avr/4.8.2/avr5/libgcc.a(_divmodhi4.o)
 .text.libgcc.mul
                0x000017fe        0x0 /opt/local/lib/gcc/avr/4.8.2/avr5/libgcc.a(_udivmodsi4.o)
 .text.libgcc.div
                0x000017fe       0x44 /opt/local/lib/gcc/avr/4.8.2/avr5/libgcc.a(_udivmodsi4.o)
                0x000017fe                __udivmodsi4
 .text.libgcc   0x00001842        0x0 /opt/local/lib/gcc/avr/4.8.2/avr5/libgcc.a(_udivmodsi4.o)
 .text.libgcc.prologue
                0x00001842        0x0 /opt/local/lib/gcc/avr/4.8.2/avr5/libgcc.a(_udivmodsi4.o)
 .text.libgcc.builtins
                0x00001842        0x0 /opt/local/lib/gcc/avr/4.8.2/avr5/libgcc.a(_udivmodsi4.o)
 .text.libgcc.fmul
                0x00001842        0x0 /opt/local/lib/gcc/avr/4.8.2/avr5/libgcc.a(_udivmodsi4.o)
 .text.libgcc.fixed
                0x00001842        0x0 /opt/local/lib/gcc/avr/4.8.2/avr5/libgcc.a(_udivmodsi4.o)
 .text.libgcc.mul
                0x00001842        0x0 /opt/local/lib/gcc/avr/4.8.2/avr5/libgcc.a(_exit.o)
 .text.libgcc.div
                0x00001842        0x0 /opt/local/lib/gcc/avr/4.8.2/avr5/libgcc.a(_exit.o)
 .text.libgcc   0x00001842        0x0 /opt/local/lib/gcc/avr/4.8.2/avr5/libgcc.a(_exit.o)
 .text.libgcc.prologue
                0x00001842        0x0 /opt/local/lib/gcc/avr/4.8.2/avr5/libgcc.a(_exit.o)
 .text.libgcc.builtins
                0x00001842        0x0 /opt/local/lib/gcc/avr/4.8.2/avr5/libgcc.a(_exit.o)
 .text.libgcc.fmul
                0x00001842        0x0 /opt/local/lib/gcc/avr/4.8.2/avr5/libgcc.a(_exit.o)
 .text.libgcc.fixed
                0x00001842        0x0 /opt/local/lib/gcc/avr/4.8.2/avr5/libgcc.a(_exit.o)
 .text.libgcc.mul
                0x00001842        0x0 /opt/local/lib/gcc/avr/4.8.2/avr5/libgcc.a(_copy_data.o)
 .text.libgcc.div
                0x00001842        0x0 /opt/local/lib/gcc/avr/4.8.2/avr5/libgcc.a(_copy_data.o)
 .text.libgcc   0x00001842        0x0 /opt/local/lib/gcc/avr/4.8.2/avr5/libgcc.a(_copy_data.o)
 .text.libgcc.prologue
                0x00001842        0x0 /opt/local/lib/gcc/avr/4.8.2/avr5/libgcc.a(_copy_data.o)
 .text.libgcc.builtins
                0x00001842        0x0 /opt/local/lib/gcc/avr/4.8.2/avr5/libgcc.a(_copy_data.o)
 .text.libgcc.fmul
                0x00001842        0x0 /opt/local/lib/gcc/avr/4.8.2/avr5/libgcc.a(_copy_data.o)
 .text.libgcc.fixed
                0x00001842        0x0 /opt/local/lib/gcc/avr/4.8.2/avr5/libgcc.a(_copy_data.o)
 .text.libgcc.mul
                0x00001842        0x0 /opt/local/lib/gcc/avr/4.8.2/avr5/libgcc.a(_clear_bss.o)
 .text.libgcc.div
                0x00001842        0x0 /opt/local/lib/gcc/avr/4.8.2/avr5/libgcc.a(_clear_bss.o)
 .text.libgcc   0x00001842        0x0 /opt/local/lib/gcc/avr/4.8.2/avr5/libgcc.a(_clear_bss.o)
 .text.libgcc.prologue
                0x00001842        0x0 /opt/local/lib/gcc/avr/4.8.2/avr5/libgcc.a(_clear_bss.o)
 .text.libgcc.builtins
                0x00001842        0x0 /opt/local/lib/gcc/avr/4.8.2/avr5/libgcc.a(_clear_bss.o)
 .text.libgcc.fmul
                0x00001842        0x0 /opt/local/lib/gcc/avr/4.8.2/avr5/libgcc.a(_clear_bss.o)
 .text.libgcc.fixed
                0x00001842        0x0 /opt/local/lib/gcc/avr/4.8.2/avr5/libgcc.a(_clear_bss.o)
 .text.libgcc.mul
                0x00001842       0x16 /opt/local/lib/gcc/avr/4.8.2/avr5/libgcc.a(_muluhisi3.o)
                0x00001842                __muluhisi3
 .text.libgcc.div
                0x00001858        0x0 /opt/local/lib/gcc/avr/4.8.2/avr5/libgcc.a(_muluhisi3.o)
 .text.libgcc   0x00001858        0x0 /opt/local/lib/gcc/avr/4.8.2/avr5/libgcc.a(_muluhisi3.o)
 .text.libgcc.prologue
                0x00001858        0x0 /opt/local/lib/gcc/avr/4.8.2/avr5/libgcc.a(_muluhisi3.o)
 .text.libgcc.builtins
                0x00001858        0x0 /opt/local/lib/gcc/avr/4.8.2/avr5/libgcc.a(_muluhisi3.o)
 .text.libgcc.fmul
                0x00001858        0x0 /opt/local/lib/gcc/avr/4.8.2/avr5/libgcc.a(_muluhisi3.o)
 .text.libgcc.fixed
                0x00001858        0x0 /opt/local/lib/gcc/avr/4.8.2/avr5/libgcc.a(_muluhisi3.o)
 .text.libgcc.mul
                0x00001858       0x1e /opt/local/lib/gcc/avr/4.8.2/avr5/libgcc.a(_umulhisi3.o)
                0x00001858                __umulhisi3
 .text.libgcc.div
                0x00001876        0x0 /opt/local/lib/gcc/avr/4.8.2/avr5/libgcc.a(_umulhisi3.o)
 .text.libgcc   0x00001876        0x0 /opt/local/lib/gcc/avr/4.8.2/avr5/libgcc.a(_umulhisi3.o)
 .text.libgcc.prologue
                0x00001876        0x0 /opt/local/lib/gcc/avr/4.8.2/avr5/libgcc.a(_umulhisi3.o)
 .text.libgcc.builtins
                0x00001876        0x0 /opt/local/lib/gcc/avr/4.8.2/avr5/libgcc.a(_umulhisi3.o)
 .text.libgcc.fmul
                0x00001876        0x0 /opt/local/lib/gcc/avr/4.8.2/avr5/libgcc.a(_umulhisi3.o)
 .text.libgcc.fixed
                0x00001876        0x0 /opt/local/lib/gcc/avr/4.8.2/avr5/libgcc.a(_umulhisi3.o)
                0x00001876                . = ALIGN (0x2)
 *(.fini9)
 .fini9         0x00001876        0x0 /opt/local/lib/gcc/avr/4.8.2/avr5/libgcc.a(_exit.o)
                0x00001876                exit
                0x00001876                _exit
 *(.fini9)
 *(.fini8)
 *(.fini8)
 *(.fini7)
 *(.fini7)
 *(.fini6)
 *(.fini6)
 *(.fini5)
 *(.fini5)
 *(.fini4)
 *(.fini4)
 *(.fini3)
 *(.fini3)
 *(.fini2)
 *(.fini2)
 *(.fini1)
 *(.fini1)
 *(.fini0)
 .fini0         0x00001876        0x4 /opt/local/lib/gcc/avr/4.8.2/avr5/libgcc.a(_exit.o)
 *(.fini0)
                0x0000187a                _etext = .

.data           0x00800100        0x6 load address 0x0000187a
                0x00800100                PROVIDE (__data_start, .)
 *(.data)
 .data          0x00800100        0x0 /opt/local/lib/gcc/avr/4.8.2/../../../../avr/lib/avr5/crt90pwm161.o
 .data          0x00800100        0x0 _BUILD/_commonCode_localized/hfModulation/1.00/hfModulation.o
 .data          0x00800100        0x0 _BUILD/_commonCode_localized/adc/0.20/adc.o
 .data          0x00800100        0x0 _BUILD/_commonCode_localized/timerCommon/1.22/timerCommon.o
 .data          0x00800100        0x3 _BUILD/_commonCode_localized/heartbeat/1.30/heartbeat.o
                0x00800101                heartStepTime
 .data          0x00800103        0x0 _BUILD/_commonCode_localized/dmsTimer/1.13/dmsTimer.o
 .data          0x00800103        0x0 _BUILD/_commonCode_localized/coordStuff/0.90/coordStuff.o
 .data          0x00800103        0x0 _BUILD/_commonCode_localized/xyTracker/3.05/xyTracker.o
 .data          0x00800103        0x0 _BUILD/_commonCode_localized/sineTable/0.99/sineTable.o
 .data          0x00800103        0x3 _BUILD/main.o
                0x00800105                updateFrame
 .data          0x00800106        0x0 /opt/local/lib/gcc/avr/4.8.2/avr5/libgcc.a(_mulsi3.o)
 .data          0x00800106        0x0 /opt/local/lib/gcc/avr/4.8.2/avr5/libgcc.a(_udivmodhi4.o)
 .data          0x00800106        0x0 /opt/local/lib/gcc/avr/4.8.2/avr5/libgcc.a(_divmodhi4.o)
 .data          0x00800106        0x0 /opt/local/lib/gcc/avr/4.8.2/avr5/libgcc.a(_udivmodsi4.o)
 .data          0x00800106        0x0 /opt/local/lib/gcc/avr/4.8.2/avr5/libgcc.a(_exit.o)
 .data          0x00800106        0x0 /opt/local/lib/gcc/avr/4.8.2/avr5/libgcc.a(_copy_data.o)
 .data          0x00800106        0x0 /opt/local/lib/gcc/avr/4.8.2/avr5/libgcc.a(_clear_bss.o)
 .data          0x00800106        0x0 /opt/local/lib/gcc/avr/4.8.2/avr5/libgcc.a(_muluhisi3.o)
 .data          0x00800106        0x0 /opt/local/lib/gcc/avr/4.8.2/avr5/libgcc.a(_umulhisi3.o)
 *(.data*)
 *(.rodata)
 *(.rodata*)
 *(.gnu.linkonce.d*)
                0x00800106                . = ALIGN (0x2)
                0x00800106                _edata = .
                0x00800106                PROVIDE (__data_end, .)

.bss            0x00800106      0x12e
                0x00800106                PROVIDE (__bss_start, .)
 *(.bss)
 .bss           0x00800106        0x0 /opt/local/lib/gcc/avr/4.8.2/../../../../avr/lib/avr5/crt90pwm161.o
 .bss           0x00800106        0x0 _BUILD/_commonCode_localized/hfModulation/1.00/hfModulation.o
 .bss           0x00800106        0x0 _BUILD/_commonCode_localized/adc/0.20/adc.o
 .bss           0x00800106        0x0 _BUILD/_commonCode_localized/timerCommon/1.22/timerCommon.o
 .bss           0x00800106        0x7 _BUILD/_commonCode_localized/heartbeat/1.30/heartbeat.o
                0x00800106                heartBlink
 .bss           0x0080010d        0x4 _BUILD/_commonCode_localized/dmsTimer/1.13/dmsTimer.o
                0x0080010d                dmsCount
 .bss           0x00800111        0x0 _BUILD/_commonCode_localized/coordStuff/0.90/coordStuff.o
 .bss           0x00800111        0x0 _BUILD/_commonCode_localized/xyTracker/3.05/xyTracker.o
 .bss           0x00800111        0x0 _BUILD/_commonCode_localized/sineTable/0.99/sineTable.o
 .bss           0x00800111        0xa _BUILD/main.o
                0x00800111                frameCount
                0x00800112                hsyncCount
                0x00800114                vSync
                0x00800115                dataEnable
 .bss           0x0080011b        0x0 /opt/local/lib/gcc/avr/4.8.2/avr5/libgcc.a(_mulsi3.o)
 .bss           0x0080011b        0x0 /opt/local/lib/gcc/avr/4.8.2/avr5/libgcc.a(_udivmodhi4.o)
 .bss           0x0080011b        0x0 /opt/local/lib/gcc/avr/4.8.2/avr5/libgcc.a(_divmodhi4.o)
 .bss           0x0080011b        0x0 /opt/local/lib/gcc/avr/4.8.2/avr5/libgcc.a(_udivmodsi4.o)
 .bss           0x0080011b        0x0 /opt/local/lib/gcc/avr/4.8.2/avr5/libgcc.a(_exit.o)
 .bss           0x0080011b        0x0 /opt/local/lib/gcc/avr/4.8.2/avr5/libgcc.a(_copy_data.o)
 .bss           0x0080011b        0x0 /opt/local/lib/gcc/avr/4.8.2/avr5/libgcc.a(_clear_bss.o)
 .bss           0x0080011b        0x0 /opt/local/lib/gcc/avr/4.8.2/avr5/libgcc.a(_muluhisi3.o)
 .bss           0x0080011b        0x0 /opt/local/lib/gcc/avr/4.8.2/avr5/libgcc.a(_umulhisi3.o)
 *(.bss*)
 *(COMMON)
 COMMON         0x0080011b        0x4 _BUILD/_commonCode_localized/heartbeat/1.30/heartbeat.o
                0x0080011b                heartModulator
 COMMON         0x0080011f       0x15 _BUILD/_commonCode_localized/dmsTimer/1.13/dmsTimer.o
                0x0080011f                dmsLine
 COMMON         0x00800134      0x100 _BUILD/main.o
                0x00800134                frameBuffer
                0x00800234                PROVIDE (__bss_end, .)
                0x0000187a                __data_load_start = LOADADDR (.data)
                0x00001880                __data_load_end = (__data_load_start + SIZEOF (.data))

.noinit         0x00800234        0x0
                0x00800234                PROVIDE (__noinit_start, .)
 *(.noinit*)
                0x00800234                PROVIDE (__noinit_end, .)
                0x00800234                _end = .
                0x00800234                PROVIDE (__heap_start, .)

.eeprom         0x00810000        0x0
 *(.eeprom*)
                0x00810000                __eeprom_end = .

.fuse
 *(.fuse)
 *(.lfuse)
 *(.hfuse)
 *(.efuse)

.lock
 *(.lock*)

.signature
 *(.signature*)

.stab           0x00000000     0x5e14
 *(.stab)
 .stab          0x00000000      0x5c4 _BUILD/_commonCode_localized/hfModulation/1.00/hfModulation.o
 .stab          0x000005c4      0x60c _BUILD/_commonCode_localized/adc/0.20/adc.o
                                0x780 (size before relaxing)
 .stab          0x00000bd0      0x60c _BUILD/_commonCode_localized/timerCommon/1.22/timerCommon.o
                                0x7d4 (size before relaxing)
 .stab          0x000011dc      0x954 _BUILD/_commonCode_localized/heartbeat/1.30/heartbeat.o
                                0xb1c (size before relaxing)
 .stab          0x00001b30      0x3a8 _BUILD/_commonCode_localized/dmsTimer/1.13/dmsTimer.o
                                0x588 (size before relaxing)
 .stab          0x00001ed8      0x564 _BUILD/_commonCode_localized/coordStuff/0.90/coordStuff.o
                                0x720 (size before relaxing)
 .stab          0x0000243c      0x51c _BUILD/_commonCode_localized/xyTracker/3.05/xyTracker.o
                                0x6d8 (size before relaxing)
 .stab          0x00002958      0x654 _BUILD/_commonCode_localized/sineTable/0.99/sineTable.o
                                0x810 (size before relaxing)
 .stab          0x00002fac     0x24d8 _BUILD/main.o
                               0x27fc (size before relaxing)
 .stab          0x00005484      0x108 /opt/local/lib/gcc/avr/4.8.2/avr5/libgcc.a(_mulsi3.o)
                                0x114 (size before relaxing)
 .stab          0x0000558c      0x15c /opt/local/lib/gcc/avr/4.8.2/avr5/libgcc.a(_udivmodhi4.o)
                                0x168 (size before relaxing)
 .stab          0x000056e8      0x138 /opt/local/lib/gcc/avr/4.8.2/avr5/libgcc.a(_divmodhi4.o)
                                0x144 (size before relaxing)
 .stab          0x00005820      0x228 /opt/local/lib/gcc/avr/4.8.2/avr5/libgcc.a(_udivmodsi4.o)
                                0x234 (size before relaxing)
 .stab          0x00005a48       0x6c /opt/local/lib/gcc/avr/4.8.2/avr5/libgcc.a(_exit.o)
                                 0x78 (size before relaxing)
 .stab          0x00005ab4       0xd8 /opt/local/lib/gcc/avr/4.8.2/avr5/libgcc.a(_copy_data.o)
                                 0xe4 (size before relaxing)
 .stab          0x00005b8c       0xb4 /opt/local/lib/gcc/avr/4.8.2/avr5/libgcc.a(_clear_bss.o)
                                 0xc0 (size before relaxing)
 .stab          0x00005c40       0xcc /opt/local/lib/gcc/avr/4.8.2/avr5/libgcc.a(_muluhisi3.o)
                                 0xd8 (size before relaxing)
 .stab          0x00005d0c      0x108 /opt/local/lib/gcc/avr/4.8.2/avr5/libgcc.a(_umulhisi3.o)
                                0x114 (size before relaxing)

.stabstr        0x00000000     0x21e0
 *(.stabstr)
 .stabstr       0x00000000     0x21e0 _BUILD/_commonCode_localized/hfModulation/1.00/hfModulation.o

.stab.excl
 *(.stab.excl)

.stab.exclstr
 *(.stab.exclstr)

.stab.index
 *(.stab.index)

.stab.indexstr
 *(.stab.indexstr)

.comment        0x00000000       0x11
 *(.comment)
 .comment       0x00000000       0x11 _BUILD/_commonCode_localized/hfModulation/1.00/hfModulation.o
                                 0x12 (size before relaxing)
 .comment       0x00000000       0x12 _BUILD/_commonCode_localized/adc/0.20/adc.o
 .comment       0x00000000       0x12 _BUILD/_commonCode_localized/timerCommon/1.22/timerCommon.o
 .comment       0x00000000       0x12 _BUILD/_commonCode_localized/heartbeat/1.30/heartbeat.o
 .comment       0x00000000       0x12 _BUILD/_commonCode_localized/dmsTimer/1.13/dmsTimer.o
 .comment       0x00000000       0x12 _BUILD/_commonCode_localized/coordStuff/0.90/coordStuff.o
 .comment       0x00000000       0x12 _BUILD/_commonCode_localized/xyTracker/3.05/xyTracker.o
 .comment       0x00000000       0x12 _BUILD/_commonCode_localized/sineTable/0.99/sineTable.o
 .comment       0x00000000       0x12 _BUILD/main.o

.note.gnu.build-id
 *(.note.gnu.build-id)

.debug
 *(.debug)

.line
 *(.line)

.debug_srcinfo
 *(.debug_srcinfo)

.debug_sfnames
 *(.debug_sfnames)

.debug_aranges
 *(.debug_aranges)

.debug_pubnames
 *(.debug_pubnames)

.debug_info     0x00000000      0x64e
 *(.debug_info .gnu.linkonce.wi.*)
 .debug_info    0x00000000      0x64e /opt/local/lib/gcc/avr/4.8.2/../../../../avr/lib/avr5/crt90pwm161.o

.debug_abbrev   0x00000000      0x5f7
 *(.debug_abbrev)
 .debug_abbrev  0x00000000      0x5f7 /opt/local/lib/gcc/avr/4.8.2/../../../../avr/lib/avr5/crt90pwm161.o

.debug_line     0x00000000       0x1d
 *(.debug_line .debug_line.* .debug_line_end)
 .debug_line    0x00000000       0x1d /opt/local/lib/gcc/avr/4.8.2/../../../../avr/lib/avr5/crt90pwm161.o

.debug_frame
 *(.debug_frame)

.debug_str      0x00000000      0x23d
 *(.debug_str)
 .debug_str     0x00000000      0x23d /opt/local/lib/gcc/avr/4.8.2/../../../../avr/lib/avr5/crt90pwm161.o

.debug_loc
 *(.debug_loc)

.debug_macinfo
 *(.debug_macinfo)

.debug_weaknames
 *(.debug_weaknames)

.debug_funcnames
 *(.debug_funcnames)

.debug_typenames
 *(.debug_typenames)

.debug_varnames
 *(.debug_varnames)

.debug_pubtypes
 *(.debug_pubtypes)

.debug_ranges
 *(.debug_ranges)

.debug_macro
 *(.debug_macro)
OUTPUT(_BUILD/LCDdirectLVDS.elf elf32-avr)
LOAD linker stubs

Cross Reference Table

Symbol                                            File
__bad_interrupt                                   /opt/local/lib/gcc/avr/4.8.2/../../../../avr/lib/avr5/crt90pwm161.o
__bss_end                                         /opt/local/lib/gcc/avr/4.8.2/avr5/libgcc.a(_clear_bss.o)
__bss_start                                       /opt/local/lib/gcc/avr/4.8.2/avr5/libgcc.a(_clear_bss.o)
__data_end                                        /opt/local/lib/gcc/avr/4.8.2/avr5/libgcc.a(_copy_data.o)
__data_load_start                                 /opt/local/lib/gcc/avr/4.8.2/avr5/libgcc.a(_copy_data.o)
__data_start                                      /opt/local/lib/gcc/avr/4.8.2/avr5/libgcc.a(_copy_data.o)
__divmodhi4                                       /opt/local/lib/gcc/avr/4.8.2/avr5/libgcc.a(_divmodhi4.o)
                                                  _BUILD/_commonCode_localized/sineTable/0.99/sineTable.o
                                                  _BUILD/_commonCode_localized/heartbeat/1.30/heartbeat.o
__do_clear_bss                                    /opt/local/lib/gcc/avr/4.8.2/avr5/libgcc.a(_clear_bss.o)
                                                  _BUILD/main.o
                                                  _BUILD/_commonCode_localized/dmsTimer/1.13/dmsTimer.o
                                                  _BUILD/_commonCode_localized/heartbeat/1.30/heartbeat.o
__do_copy_data                                    /opt/local/lib/gcc/avr/4.8.2/avr5/libgcc.a(_copy_data.o)
                                                  _BUILD/main.o
                                                  _BUILD/_commonCode_localized/heartbeat/1.30/heartbeat.o
__heap_end                                        /opt/local/lib/gcc/avr/4.8.2/../../../../avr/lib/avr5/crt90pwm161.o
__init                                            /opt/local/lib/gcc/avr/4.8.2/../../../../avr/lib/avr5/crt90pwm161.o
__mulsi3                                          /opt/local/lib/gcc/avr/4.8.2/avr5/libgcc.a(_mulsi3.o)
                                                  _BUILD/_commonCode_localized/xyTracker/3.05/xyTracker.o
__muluhisi3                                       /opt/local/lib/gcc/avr/4.8.2/avr5/libgcc.a(_muluhisi3.o)
                                                  /opt/local/lib/gcc/avr/4.8.2/avr5/libgcc.a(_mulsi3.o)
__stack                                           /opt/local/lib/gcc/avr/4.8.2/../../../../avr/lib/avr5/crt90pwm161.o
__udivmodhi4                                      /opt/local/lib/gcc/avr/4.8.2/avr5/libgcc.a(_udivmodhi4.o)
                                                  /opt/local/lib/gcc/avr/4.8.2/avr5/libgcc.a(_divmodhi4.o)
                                                  _BUILD/main.o
                                                  _BUILD/_commonCode_localized/heartbeat/1.30/heartbeat.o
__udivmodsi4                                      /opt/local/lib/gcc/avr/4.8.2/avr5/libgcc.a(_udivmodsi4.o)
                                                  _BUILD/_commonCode_localized/xyTracker/3.05/xyTracker.o
__umulhisi3                                       /opt/local/lib/gcc/avr/4.8.2/avr5/libgcc.a(_umulhisi3.o)
                                                  /opt/local/lib/gcc/avr/4.8.2/avr5/libgcc.a(_muluhisi3.o)
__vector_1                                        /opt/local/lib/gcc/avr/4.8.2/../../../../avr/lib/avr5/crt90pwm161.o
__vector_10                                       /opt/local/lib/gcc/avr/4.8.2/../../../../avr/lib/avr5/crt90pwm161.o
__vector_11                                       _BUILD/main.o
                                                  /opt/local/lib/gcc/avr/4.8.2/../../../../avr/lib/avr5/crt90pwm161.o
__vector_12                                       /opt/local/lib/gcc/avr/4.8.2/../../../../avr/lib/avr5/crt90pwm161.o
__vector_13                                       /opt/local/lib/gcc/avr/4.8.2/../../../../avr/lib/avr5/crt90pwm161.o
__vector_14                                       /opt/local/lib/gcc/avr/4.8.2/../../../../avr/lib/avr5/crt90pwm161.o
__vector_15                                       /opt/local/lib/gcc/avr/4.8.2/../../../../avr/lib/avr5/crt90pwm161.o
__vector_16                                       /opt/local/lib/gcc/avr/4.8.2/../../../../avr/lib/avr5/crt90pwm161.o
__vector_17                                       /opt/local/lib/gcc/avr/4.8.2/../../../../avr/lib/avr5/crt90pwm161.o
__vector_18                                       /opt/local/lib/gcc/avr/4.8.2/../../../../avr/lib/avr5/crt90pwm161.o
__vector_19                                       /opt/local/lib/gcc/avr/4.8.2/../../../../avr/lib/avr5/crt90pwm161.o
__vector_2                                        /opt/local/lib/gcc/avr/4.8.2/../../../../avr/lib/avr5/crt90pwm161.o
__vector_3                                        /opt/local/lib/gcc/avr/4.8.2/../../../../avr/lib/avr5/crt90pwm161.o
__vector_4                                        /opt/local/lib/gcc/avr/4.8.2/../../../../avr/lib/avr5/crt90pwm161.o
__vector_5                                        /opt/local/lib/gcc/avr/4.8.2/../../../../avr/lib/avr5/crt90pwm161.o
__vector_6                                        /opt/local/lib/gcc/avr/4.8.2/../../../../avr/lib/avr5/crt90pwm161.o
__vector_7                                        /opt/local/lib/gcc/avr/4.8.2/../../../../avr/lib/avr5/crt90pwm161.o
__vector_8                                        /opt/local/lib/gcc/avr/4.8.2/../../../../avr/lib/avr5/crt90pwm161.o
__vector_9                                        /opt/local/lib/gcc/avr/4.8.2/../../../../avr/lib/avr5/crt90pwm161.o
__vector_default                                  /opt/local/lib/gcc/avr/4.8.2/../../../../avr/lib/avr5/crt90pwm161.o
__vectors                                         /opt/local/lib/gcc/avr/4.8.2/../../../../avr/lib/avr5/crt90pwm161.o
_div                                              /opt/local/lib/gcc/avr/4.8.2/avr5/libgcc.a(_divmodhi4.o)
_exit                                             /opt/local/lib/gcc/avr/4.8.2/avr5/libgcc.a(_exit.o)
adc_getValue                                      _BUILD/_commonCode_localized/adc/0.20/adc.o
adc_init                                          _BUILD/_commonCode_localized/adc/0.20/adc.o
adc_isBusy                                        _BUILD/_commonCode_localized/adc/0.20/adc.o
adc_select                                        _BUILD/_commonCode_localized/adc/0.20/adc.o
adc_setPrescaler                                  _BUILD/_commonCode_localized/adc/0.20/adc.o
adc_startConversion                               _BUILD/_commonCode_localized/adc/0.20/adc.o
adc_takeInput                                     _BUILD/_commonCode_localized/adc/0.20/adc.o
blinkHeart                                        _BUILD/_commonCode_localized/heartbeat/1.30/heartbeat.o
characters                                        _BUILD/main.o
coord_abs                                         _BUILD/_commonCode_localized/coordStuff/0.90/coordStuff.o
                                                  _BUILD/_commonCode_localized/xyTracker/3.05/xyTracker.o
coord_limit                                       _BUILD/_commonCode_localized/coordStuff/0.90/coordStuff.o
                                                  _BUILD/_commonCode_localized/xyTracker/3.05/xyTracker.o
coord_max                                         _BUILD/_commonCode_localized/coordStuff/0.90/coordStuff.o
coord_sign                                        _BUILD/_commonCode_localized/coordStuff/0.90/coordStuff.o
dataEnable                                        _BUILD/main.o
dmsCount                                          _BUILD/_commonCode_localized/dmsTimer/1.13/dmsTimer.o
                                                  _BUILD/main.o
                                                  _BUILD/_commonCode_localized/heartbeat/1.30/heartbeat.o
dmsLine                                           _BUILD/_commonCode_localized/dmsTimer/1.13/dmsTimer.o
                                                  _BUILD/main.o
dmsWaitFn                                         _BUILD/_commonCode_localized/dmsTimer/1.13/dmsTimer.o
exit                                              /opt/local/lib/gcc/avr/4.8.2/avr5/libgcc.a(_exit.o)
                                                  /opt/local/lib/gcc/avr/4.8.2/../../../../avr/lib/avr5/crt90pwm161.o
frameBuffer                                       _BUILD/main.o
frameBufferInit                                   _BUILD/main.o
frameBufferUpdate                                 _BUILD/main.o
frameCount                                        _BUILD/main.o
getHeartRate                                      _BUILD/_commonCode_localized/heartbeat/1.30/heartbeat.o
header                                            _BUILD/main.o
heartBlink                                        _BUILD/_commonCode_localized/heartbeat/1.30/heartbeat.o
heartClear                                        _BUILD/_commonCode_localized/heartbeat/1.30/heartbeat.o
heartModulator                                    _BUILD/_commonCode_localized/heartbeat/1.30/heartbeat.o
heartPinInputPoll                                 _BUILD/_commonCode_localized/heartbeat/1.30/heartbeat.o
heartStepTime                                     _BUILD/_commonCode_localized/heartbeat/1.30/heartbeat.o
heartUpdate                                       _BUILD/_commonCode_localized/heartbeat/1.30/heartbeat.o
                                                  _BUILD/main.o
heartupdate                                       _BUILD/_commonCode_localized/heartbeat/1.30/heartbeat.o
hfm_nextOutput                                    _BUILD/_commonCode_localized/hfModulation/1.00/hfModulation.o
                                                  _BUILD/_commonCode_localized/heartbeat/1.30/heartbeat.o
hfm_setPower                                      _BUILD/_commonCode_localized/hfModulation/1.00/hfModulation.o
                                                  _BUILD/_commonCode_localized/heartbeat/1.30/heartbeat.o
hfm_setup                                         _BUILD/_commonCode_localized/hfModulation/1.00/hfModulation.o
                                                  _BUILD/_commonCode_localized/heartbeat/1.30/heartbeat.o
hsyncCount                                        _BUILD/main.o
init_heartBeat                                    _BUILD/_commonCode_localized/heartbeat/1.30/heartbeat.o
                                                  _BUILD/main.o
init_hsyncTimer                                   _BUILD/main.o
isNewFrame                                        _BUILD/main.o
lcd_Init                                          _BUILD/main.o
lvds_timerInit                                    _BUILD/main.o
main                                              _BUILD/main.o
                                                  /opt/local/lib/gcc/avr/4.8.2/../../../../avr/lib/avr5/crt90pwm161.o
nonRSB_drawPix                                    _BUILD/main.o
pgm_image1                                        _BUILD/main.o
pgm_image2                                        _BUILD/main.o
pll_enable                                        _BUILD/main.o
quadrantizeTheta                                  _BUILD/_commonCode_localized/sineTable/0.99/sineTable.o
setColor                                          _BUILD/main.o
setHeartRate                                      _BUILD/_commonCode_localized/heartbeat/1.30/heartbeat.o
                                                  _BUILD/main.o
set_heartBlink                                    _BUILD/_commonCode_localized/heartbeat/1.30/heartbeat.o
sineRaw                                           _BUILD/_commonCode_localized/sineTable/0.99/sineTable.o
sineRaw8                                          _BUILD/_commonCode_localized/sineTable/0.99/sineTable.o
sineTable                                         _BUILD/_commonCode_localized/sineTable/0.99/sineTable.o
smileyUpdate                                      _BUILD/main.o
timer_compareMatchIntSetup                        _BUILD/_commonCode_localized/timerCommon/1.22/timerCommon.o
                                                  _BUILD/main.o
timer_init                                        _BUILD/_commonCode_localized/timerCommon/1.22/timerCommon.o
timer_selectDivisor                               _BUILD/_commonCode_localized/timerCommon/1.22/timerCommon.o
                                                  _BUILD/main.o
timer_setWGM                                      _BUILD/_commonCode_localized/timerCommon/1.22/timerCommon.o
                                                  _BUILD/main.o
ucoord_limit                                      _BUILD/_commonCode_localized/coordStuff/0.90/coordStuff.o
                                                  _BUILD/_commonCode_localized/xyTracker/3.05/xyTracker.o
updateFrame                                       _BUILD/main.o
updateLCD                                         _BUILD/main.o
vSync                                             _BUILD/main.o
xyt_init                                          _BUILD/_commonCode_localized/xyTracker/3.05/xyTracker.o
                                                  _BUILD/main.o
xyt_remainder                                     _BUILD/_commonCode_localized/xyTracker/3.05/xyTracker.o
xyt_update                                        _BUILD/_commonCode_localized/xyTracker/3.05/xyTracker.o
                                                  _BUILD/main.o
