Archive member included because of file (symbol)

/opt/local/lib/gcc/avr/4.8.2/avr25/libgcc.a(_divmodhi4.o)
                              _BUILD/_commonCode_localized/sineTable/0.99/sineTable.o (__divmodhi4)
/opt/local/lib/gcc/avr/4.8.2/avr25/libgcc.a(_udivmodsi4.o)
                              _BUILD/_commonCode_localized/heartbeat/1.50/heartbeat.o (__udivmodsi4)
/opt/local/lib/gcc/avr/4.8.2/avr25/libgcc.a(_exit.o)
                              /opt/local/lib/gcc/avr/4.8.2/../../../../avr/lib/avr25/crttn861.o (exit)
/opt/local/lib/gcc/avr/4.8.2/avr25/libgcc.a(_copy_data.o)
                              _BUILD/_commonCode_localized/heartbeat/1.50/heartbeat.o (__do_copy_data)
/opt/local/lib/gcc/avr/4.8.2/avr25/libgcc.a(_clear_bss.o)
                              _BUILD/_commonCode_localized/heartbeat/1.50/heartbeat.o (__do_clear_bss)
/opt/local/lib/gcc/avr/4.8.2/avr25/libgcc.a(_udivmodhi4.o)
                              /opt/local/lib/gcc/avr/4.8.2/avr25/libgcc.a(_divmodhi4.o) (__udivmodhi4)

Allocating common symbols
Common symbol       size              file

heartModulator      0x4               _BUILD/_commonCode_localized/heartbeat/1.50/heartbeat.o

Memory Configuration

Name             Origin             Length             Attributes
text             0x00000000         0x00002000         xr
data             0x00800060         0x0000ffa0         rw !x
eeprom           0x00810000         0x00010000         rw !x
fuse             0x00820000         0x00000400         rw !x
lock             0x00830000         0x00000400         rw !x
signature        0x00840000         0x00000400         rw !x
*default*        0x00000000         0xffffffff

Linker script and memory map

LOAD /opt/local/lib/gcc/avr/4.8.2/../../../../avr/lib/avr25/crttn861.o
LOAD _BUILD/_commonCode_localized/hfModulation/1.00/hfModulation.o
LOAD _BUILD/_commonCode_localized/timerCommon/1.22/timerCommon.o
LOAD _BUILD/_commonCode_localized/heartbeat/1.50/heartbeat.o
LOAD _BUILD/_commonCode_localized/tcnter/0.30/tcnter.o
LOAD _BUILD/_commonCode_localized/sineTable/0.99/sineTable.o
LOAD _BUILD/main.o
START GROUP
LOAD /opt/local/lib/gcc/avr/4.8.2/avr25/libgcc.a
LOAD /opt/local/lib/gcc/avr/4.8.2/../../../../avr/lib/avr25/libm.a
LOAD /opt/local/lib/gcc/avr/4.8.2/../../../../avr/lib/avr25/libc.a
END GROUP

.hash
 *(.hash)

.dynsym
 *(.dynsym)

.dynstr
 *(.dynstr)

.gnu.version
 *(.gnu.version)

.gnu.version_d
 *(.gnu.version_d)

.gnu.version_r
 *(.gnu.version_r)

.rel.init
 *(.rel.init)

.rela.init
 *(.rela.init)

.rel.text
 *(.rel.text)
 *(.rel.text.*)
 *(.rel.gnu.linkonce.t*)

.rela.text
 *(.rela.text)
 *(.rela.text.*)
 *(.rela.gnu.linkonce.t*)

.rel.fini
 *(.rel.fini)

.rela.fini
 *(.rela.fini)

.rel.rodata
 *(.rel.rodata)
 *(.rel.rodata.*)
 *(.rel.gnu.linkonce.r*)

.rela.rodata
 *(.rela.rodata)
 *(.rela.rodata.*)
 *(.rela.gnu.linkonce.r*)

.rel.data
 *(.rel.data)
 *(.rel.data.*)
 *(.rel.gnu.linkonce.d*)

.rela.data
 *(.rela.data)
 *(.rela.data.*)
 *(.rela.gnu.linkonce.d*)

.rel.ctors
 *(.rel.ctors)

.rela.ctors
 *(.rela.ctors)

.rel.dtors
 *(.rel.dtors)

.rela.dtors
 *(.rela.dtors)

.rel.got
 *(.rel.got)

.rela.got
 *(.rela.got)

.rel.bss
 *(.rel.bss)

.rela.bss
 *(.rela.bss)

.rel.plt
 *(.rel.plt)

.rela.plt
 *(.rela.plt)

.text           0x00000000      0xd4a
 *(.vectors)
 .vectors       0x00000000       0x26 /opt/local/lib/gcc/avr/4.8.2/../../../../avr/lib/avr25/crttn861.o
                0x00000000                __vectors
                0x00000000                __vector_default
 *(.vectors)
 *(.progmem.gcc*)
                0x00000026                . = ALIGN (0x2)
                0x00000026                __trampolines_start = .
 *(.trampolines)
 .trampolines   0x00000026        0x0 linker stubs
 *(.trampolines*)
                0x00000026                __trampolines_end = .
 *(.progmem*)
 .progmem.data  0x00000026      0x102 _BUILD/_commonCode_localized/sineTable/0.99/sineTable.o
                0x00000026                sineTable
 .progmem.data  0x00000128      0x324 _BUILD/main.o
                0x00000128                characters
                0x00000428                header
                0x0000044c                . = ALIGN (0x2)
 *(.jumptables)
 *(.jumptables*)
 *(.lowtext)
 *(.lowtext*)
                0x0000044c                __ctors_start = .
 *(.ctors)
                0x0000044c                __ctors_end = .
                0x0000044c                __dtors_start = .
 *(.dtors)
                0x0000044c                __dtors_end = .
 SORT(*)(.ctors)
 SORT(*)(.dtors)
 *(.init0)
 .init0         0x0000044c        0x0 /opt/local/lib/gcc/avr/4.8.2/../../../../avr/lib/avr25/crttn861.o
                0x0000044c                __init
 *(.init0)
 *(.init1)
 *(.init1)
 *(.init2)
 .init2         0x0000044c        0xc /opt/local/lib/gcc/avr/4.8.2/../../../../avr/lib/avr25/crttn861.o
 *(.init2)
 *(.init3)
 *(.init3)
 *(.init4)
 .init4         0x00000458       0x16 /opt/local/lib/gcc/avr/4.8.2/avr25/libgcc.a(_copy_data.o)
                0x00000458                __do_copy_data
 .init4         0x0000046e       0x10 /opt/local/lib/gcc/avr/4.8.2/avr25/libgcc.a(_clear_bss.o)
                0x0000046e                __do_clear_bss
 *(.init4)
 *(.init5)
 *(.init5)
 *(.init6)
 *(.init6)
 *(.init7)
 *(.init7)
 *(.init8)
 *(.init8)
 *(.init9)
 .init9         0x0000047e        0x4 /opt/local/lib/gcc/avr/4.8.2/../../../../avr/lib/avr25/crttn861.o
 *(.init9)
 *(.text)
 .text          0x00000482        0x2 /opt/local/lib/gcc/avr/4.8.2/../../../../avr/lib/avr25/crttn861.o
                0x00000482                __vector_18
                0x00000482                __vector_12
                0x00000482                __bad_interrupt
                0x00000482                __vector_6
                0x00000482                __vector_3
                0x00000482                __vector_11
                0x00000482                __vector_13
                0x00000482                __vector_17
                0x00000482                __vector_7
                0x00000482                __vector_5
                0x00000482                __vector_4
                0x00000482                __vector_9
                0x00000482                __vector_2
                0x00000482                __vector_15
                0x00000482                __vector_8
                0x00000482                __vector_10
                0x00000482                __vector_16
                0x00000482                __vector_1
 .text          0x00000484       0x4c _BUILD/_commonCode_localized/hfModulation/1.00/hfModulation.o
                0x00000484                hfm_setPower
                0x00000496                hfm_setup
                0x000004a0                hfm_nextOutput
 .text          0x000004d0      0x148 _BUILD/_commonCode_localized/timerCommon/1.22/timerCommon.o
                0x000004d0                timer_selectDivisor
                0x0000051a                timer_setWGM
                0x00000556                timer_init
                0x00000580                timer_compareMatchIntSetup
 .text          0x00000618      0x264 _BUILD/_commonCode_localized/heartbeat/1.50/heartbeat.o
                0x00000618                setHeartRate
                0x00000642                getHeartRate
                0x00000660                heartClear
                0x00000668                init_heartBeat
                0x00000690                set_heartBlink
                0x00000696                heartUpdate
                0x00000866                heartPinInputPoll
 .text          0x0000087c      0x1c6 _BUILD/_commonCode_localized/tcnter/0.30/tcnter.o
                0x0000087c                tcnter_init
                0x00000894                tcnter_overflowUpdate
                0x00000924                tcnter_update
                0x000009a0                tcnter_wait
                0x00000a30                tcnter_get
 .text          0x00000a42       0x82 _BUILD/_commonCode_localized/sineTable/0.99/sineTable.o
                0x00000a42                quadrantizeTheta
                0x00000a74                sineRaw
                0x00000aa0                sineRaw8
 .text          0x00000ac4      0x1e2 _BUILD/main.o
                0x00000ac4                pll_enable
                0x00000ae8                lvds_timerInit
                0x00000b36                lcd_init
                0x00000b50                drawPix
                0x00000b66                lcd_update
                0x00000c0e                restartFrameUpdate
                0x00000c16                __vector_14
                0x00000c76                init_hsyncTimer
                0x00000c8e                isNewFrame
 .text          0x00000ca6        0x0 /opt/local/lib/gcc/avr/4.8.2/avr25/libgcc.a(_divmodhi4.o)
 .text          0x00000ca6        0x0 /opt/local/lib/gcc/avr/4.8.2/avr25/libgcc.a(_udivmodsi4.o)
 .text          0x00000ca6        0x0 /opt/local/lib/gcc/avr/4.8.2/avr25/libgcc.a(_exit.o)
 .text          0x00000ca6        0x0 /opt/local/lib/gcc/avr/4.8.2/avr25/libgcc.a(_copy_data.o)
 .text          0x00000ca6        0x0 /opt/local/lib/gcc/avr/4.8.2/avr25/libgcc.a(_clear_bss.o)
 .text          0x00000ca6        0x0 /opt/local/lib/gcc/avr/4.8.2/avr25/libgcc.a(_udivmodhi4.o)
                0x00000ca6                . = ALIGN (0x2)
 *(.text.*)
 .text.startup  0x00000ca6        0xe _BUILD/main.o
                0x00000ca6                main
 .text.libgcc.mul
                0x00000cb4        0x0 /opt/local/lib/gcc/avr/4.8.2/avr25/libgcc.a(_divmodhi4.o)
 .text.libgcc.div
                0x00000cb4       0x26 /opt/local/lib/gcc/avr/4.8.2/avr25/libgcc.a(_divmodhi4.o)
                0x00000cb4                __divmodhi4
                0x00000cb4                _div
 .text.libgcc   0x00000cda        0x0 /opt/local/lib/gcc/avr/4.8.2/avr25/libgcc.a(_divmodhi4.o)
 .text.libgcc.prologue
                0x00000cda        0x0 /opt/local/lib/gcc/avr/4.8.2/avr25/libgcc.a(_divmodhi4.o)
 .text.libgcc.builtins
                0x00000cda        0x0 /opt/local/lib/gcc/avr/4.8.2/avr25/libgcc.a(_divmodhi4.o)
 .text.libgcc.fmul
                0x00000cda        0x0 /opt/local/lib/gcc/avr/4.8.2/avr25/libgcc.a(_divmodhi4.o)
 .text.libgcc.fixed
                0x00000cda        0x0 /opt/local/lib/gcc/avr/4.8.2/avr25/libgcc.a(_divmodhi4.o)
 .text.libgcc.mul
                0x00000cda        0x0 /opt/local/lib/gcc/avr/4.8.2/avr25/libgcc.a(_udivmodsi4.o)
 .text.libgcc.div
                0x00000cda       0x44 /opt/local/lib/gcc/avr/4.8.2/avr25/libgcc.a(_udivmodsi4.o)
                0x00000cda                __udivmodsi4
 .text.libgcc   0x00000d1e        0x0 /opt/local/lib/gcc/avr/4.8.2/avr25/libgcc.a(_udivmodsi4.o)
 .text.libgcc.prologue
                0x00000d1e        0x0 /opt/local/lib/gcc/avr/4.8.2/avr25/libgcc.a(_udivmodsi4.o)
 .text.libgcc.builtins
                0x00000d1e        0x0 /opt/local/lib/gcc/avr/4.8.2/avr25/libgcc.a(_udivmodsi4.o)
 .text.libgcc.fmul
                0x00000d1e        0x0 /opt/local/lib/gcc/avr/4.8.2/avr25/libgcc.a(_udivmodsi4.o)
 .text.libgcc.fixed
                0x00000d1e        0x0 /opt/local/lib/gcc/avr/4.8.2/avr25/libgcc.a(_udivmodsi4.o)
 .text.libgcc.mul
                0x00000d1e        0x0 /opt/local/lib/gcc/avr/4.8.2/avr25/libgcc.a(_exit.o)
 .text.libgcc.div
                0x00000d1e        0x0 /opt/local/lib/gcc/avr/4.8.2/avr25/libgcc.a(_exit.o)
 .text.libgcc   0x00000d1e        0x0 /opt/local/lib/gcc/avr/4.8.2/avr25/libgcc.a(_exit.o)
 .text.libgcc.prologue
                0x00000d1e        0x0 /opt/local/lib/gcc/avr/4.8.2/avr25/libgcc.a(_exit.o)
 .text.libgcc.builtins
                0x00000d1e        0x0 /opt/local/lib/gcc/avr/4.8.2/avr25/libgcc.a(_exit.o)
 .text.libgcc.fmul
                0x00000d1e        0x0 /opt/local/lib/gcc/avr/4.8.2/avr25/libgcc.a(_exit.o)
 .text.libgcc.fixed
                0x00000d1e        0x0 /opt/local/lib/gcc/avr/4.8.2/avr25/libgcc.a(_exit.o)
 .text.libgcc.mul
                0x00000d1e        0x0 /opt/local/lib/gcc/avr/4.8.2/avr25/libgcc.a(_copy_data.o)
 .text.libgcc.div
                0x00000d1e        0x0 /opt/local/lib/gcc/avr/4.8.2/avr25/libgcc.a(_copy_data.o)
 .text.libgcc   0x00000d1e        0x0 /opt/local/lib/gcc/avr/4.8.2/avr25/libgcc.a(_copy_data.o)
 .text.libgcc.prologue
                0x00000d1e        0x0 /opt/local/lib/gcc/avr/4.8.2/avr25/libgcc.a(_copy_data.o)
 .text.libgcc.builtins
                0x00000d1e        0x0 /opt/local/lib/gcc/avr/4.8.2/avr25/libgcc.a(_copy_data.o)
 .text.libgcc.fmul
                0x00000d1e        0x0 /opt/local/lib/gcc/avr/4.8.2/avr25/libgcc.a(_copy_data.o)
 .text.libgcc.fixed
                0x00000d1e        0x0 /opt/local/lib/gcc/avr/4.8.2/avr25/libgcc.a(_copy_data.o)
 .text.libgcc.mul
                0x00000d1e        0x0 /opt/local/lib/gcc/avr/4.8.2/avr25/libgcc.a(_clear_bss.o)
 .text.libgcc.div
                0x00000d1e        0x0 /opt/local/lib/gcc/avr/4.8.2/avr25/libgcc.a(_clear_bss.o)
 .text.libgcc   0x00000d1e        0x0 /opt/local/lib/gcc/avr/4.8.2/avr25/libgcc.a(_clear_bss.o)
 .text.libgcc.prologue
                0x00000d1e        0x0 /opt/local/lib/gcc/avr/4.8.2/avr25/libgcc.a(_clear_bss.o)
 .text.libgcc.builtins
                0x00000d1e        0x0 /opt/local/lib/gcc/avr/4.8.2/avr25/libgcc.a(_clear_bss.o)
 .text.libgcc.fmul
                0x00000d1e        0x0 /opt/local/lib/gcc/avr/4.8.2/avr25/libgcc.a(_clear_bss.o)
 .text.libgcc.fixed
                0x00000d1e        0x0 /opt/local/lib/gcc/avr/4.8.2/avr25/libgcc.a(_clear_bss.o)
 .text.libgcc.mul
                0x00000d1e        0x0 /opt/local/lib/gcc/avr/4.8.2/avr25/libgcc.a(_udivmodhi4.o)
 .text.libgcc.div
                0x00000d1e       0x28 /opt/local/lib/gcc/avr/4.8.2/avr25/libgcc.a(_udivmodhi4.o)
                0x00000d1e                __udivmodhi4
 .text.libgcc   0x00000d46        0x0 /opt/local/lib/gcc/avr/4.8.2/avr25/libgcc.a(_udivmodhi4.o)
 .text.libgcc.prologue
                0x00000d46        0x0 /opt/local/lib/gcc/avr/4.8.2/avr25/libgcc.a(_udivmodhi4.o)
 .text.libgcc.builtins
                0x00000d46        0x0 /opt/local/lib/gcc/avr/4.8.2/avr25/libgcc.a(_udivmodhi4.o)
 .text.libgcc.fmul
                0x00000d46        0x0 /opt/local/lib/gcc/avr/4.8.2/avr25/libgcc.a(_udivmodhi4.o)
 .text.libgcc.fixed
                0x00000d46        0x0 /opt/local/lib/gcc/avr/4.8.2/avr25/libgcc.a(_udivmodhi4.o)
                0x00000d46                . = ALIGN (0x2)
 *(.fini9)
 .fini9         0x00000d46        0x0 /opt/local/lib/gcc/avr/4.8.2/avr25/libgcc.a(_exit.o)
                0x00000d46                exit
                0x00000d46                _exit
 *(.fini9)
 *(.fini8)
 *(.fini8)
 *(.fini7)
 *(.fini7)
 *(.fini6)
 *(.fini6)
 *(.fini5)
 *(.fini5)
 *(.fini4)
 *(.fini4)
 *(.fini3)
 *(.fini3)
 *(.fini2)
 *(.fini2)
 *(.fini1)
 *(.fini1)
 *(.fini0)
 .fini0         0x00000d46        0x4 /opt/local/lib/gcc/avr/4.8.2/avr25/libgcc.a(_exit.o)
 *(.fini0)
                0x00000d4a                _etext = .

.data           0x00800060        0x6 load address 0x00000d4a
                0x00800060                PROVIDE (__data_start, .)
 *(.data)
 .data          0x00800060        0x0 /opt/local/lib/gcc/avr/4.8.2/../../../../avr/lib/avr25/crttn861.o
 .data          0x00800060        0x0 _BUILD/_commonCode_localized/hfModulation/1.00/hfModulation.o
 .data          0x00800060        0x0 _BUILD/_commonCode_localized/timerCommon/1.22/timerCommon.o
 .data          0x00800060        0x5 _BUILD/_commonCode_localized/heartbeat/1.50/heartbeat.o
                0x00800061                heartStepTime
 .data          0x00800065        0x0 _BUILD/_commonCode_localized/tcnter/0.30/tcnter.o
 .data          0x00800065        0x0 _BUILD/_commonCode_localized/sineTable/0.99/sineTable.o
 .data          0x00800065        0x1 _BUILD/main.o
                0x00800065                updateFrame
 .data          0x00800066        0x0 /opt/local/lib/gcc/avr/4.8.2/avr25/libgcc.a(_divmodhi4.o)
 .data          0x00800066        0x0 /opt/local/lib/gcc/avr/4.8.2/avr25/libgcc.a(_udivmodsi4.o)
 .data          0x00800066        0x0 /opt/local/lib/gcc/avr/4.8.2/avr25/libgcc.a(_exit.o)
 .data          0x00800066        0x0 /opt/local/lib/gcc/avr/4.8.2/avr25/libgcc.a(_copy_data.o)
 .data          0x00800066        0x0 /opt/local/lib/gcc/avr/4.8.2/avr25/libgcc.a(_clear_bss.o)
 .data          0x00800066        0x0 /opt/local/lib/gcc/avr/4.8.2/avr25/libgcc.a(_udivmodhi4.o)
 *(.data*)
 *(.rodata)
 *(.rodata*)
 *(.gnu.linkonce.d*)
                0x00800066                . = ALIGN (0x2)
                0x00800066                _edata = .
                0x00800066                PROVIDE (__data_end, .)

.bss            0x00800066       0x1f
                0x00800066                PROVIDE (__bss_start, .)
 *(.bss)
 .bss           0x00800066        0x0 /opt/local/lib/gcc/avr/4.8.2/../../../../avr/lib/avr25/crttn861.o
 .bss           0x00800066        0x0 _BUILD/_commonCode_localized/hfModulation/1.00/hfModulation.o
 .bss           0x00800066        0x0 _BUILD/_commonCode_localized/timerCommon/1.22/timerCommon.o
 .bss           0x00800066        0xb _BUILD/_commonCode_localized/heartbeat/1.50/heartbeat.o
                0x00800066                heartBlink
 .bss           0x00800071        0xa _BUILD/_commonCode_localized/tcnter/0.30/tcnter.o
                0x00800071                tcnter_lastOverflowTcnt
                0x00800072                tcnter_updatesSinceOverflowUpdate
                0x00800076                tcnter_lastTcnt
                0x00800077                tcnter_myTcnter
 .bss           0x0080007b        0x0 _BUILD/_commonCode_localized/sineTable/0.99/sineTable.o
 .bss           0x0080007b        0x6 _BUILD/main.o
                0x0080007b                frameCount
                0x0080007c                hsyncCount
                0x0080007e                vSync
                0x0080007f                dataEnable
 .bss           0x00800081        0x0 /opt/local/lib/gcc/avr/4.8.2/avr25/libgcc.a(_divmodhi4.o)
 .bss           0x00800081        0x0 /opt/local/lib/gcc/avr/4.8.2/avr25/libgcc.a(_udivmodsi4.o)
 .bss           0x00800081        0x0 /opt/local/lib/gcc/avr/4.8.2/avr25/libgcc.a(_exit.o)
 .bss           0x00800081        0x0 /opt/local/lib/gcc/avr/4.8.2/avr25/libgcc.a(_copy_data.o)
 .bss           0x00800081        0x0 /opt/local/lib/gcc/avr/4.8.2/avr25/libgcc.a(_clear_bss.o)
 .bss           0x00800081        0x0 /opt/local/lib/gcc/avr/4.8.2/avr25/libgcc.a(_udivmodhi4.o)
 *(.bss*)
 *(COMMON)
 COMMON         0x00800081        0x4 _BUILD/_commonCode_localized/heartbeat/1.50/heartbeat.o
                0x00800081                heartModulator
                0x00800085                PROVIDE (__bss_end, .)
                0x00000d4a                __data_load_start = LOADADDR (.data)
                0x00000d50                __data_load_end = (__data_load_start + SIZEOF (.data))

.noinit         0x00800085        0x0
                0x00800085                PROVIDE (__noinit_start, .)
 *(.noinit*)
                0x00800085                PROVIDE (__noinit_end, .)
                0x00800085                _end = .
                0x00800085                PROVIDE (__heap_start, .)

.eeprom         0x00810000        0x0
 *(.eeprom*)
                0x00810000                __eeprom_end = .

.fuse
 *(.fuse)
 *(.lfuse)
 *(.hfuse)
 *(.efuse)

.lock
 *(.lock*)

.signature
 *(.signature*)

.stab           0x00000000     0x33cc
 *(.stab)
 .stab          0x00000000      0x5c4 _BUILD/_commonCode_localized/hfModulation/1.00/hfModulation.o
 .stab          0x000005c4      0x840 _BUILD/_commonCode_localized/timerCommon/1.22/timerCommon.o
                                0x9b4 (size before relaxing)
 .stab          0x00000e04      0x84c _BUILD/_commonCode_localized/heartbeat/1.50/heartbeat.o
                                0xa14 (size before relaxing)
 .stab          0x00001650      0x63c _BUILD/_commonCode_localized/tcnter/0.30/tcnter.o
                                0x804 (size before relaxing)
 .stab          0x00001c8c      0x654 _BUILD/_commonCode_localized/sineTable/0.99/sineTable.o
                                0x810 (size before relaxing)
 .stab          0x000022e0      0xa38 _BUILD/main.o
                                0xce4 (size before relaxing)
 .stab          0x00002d18      0x138 /opt/local/lib/gcc/avr/4.8.2/avr25/libgcc.a(_divmodhi4.o)
                                0x144 (size before relaxing)
 .stab          0x00002e50      0x228 /opt/local/lib/gcc/avr/4.8.2/avr25/libgcc.a(_udivmodsi4.o)
                                0x234 (size before relaxing)
 .stab          0x00003078       0x6c /opt/local/lib/gcc/avr/4.8.2/avr25/libgcc.a(_exit.o)
                                 0x78 (size before relaxing)
 .stab          0x000030e4       0xd8 /opt/local/lib/gcc/avr/4.8.2/avr25/libgcc.a(_copy_data.o)
                                 0xe4 (size before relaxing)
 .stab          0x000031bc       0xb4 /opt/local/lib/gcc/avr/4.8.2/avr25/libgcc.a(_clear_bss.o)
                                 0xc0 (size before relaxing)
 .stab          0x00003270      0x15c /opt/local/lib/gcc/avr/4.8.2/avr25/libgcc.a(_udivmodhi4.o)
                                0x168 (size before relaxing)

.stabstr        0x00000000     0x1a37
 *(.stabstr)
 .stabstr       0x00000000     0x1a37 _BUILD/_commonCode_localized/hfModulation/1.00/hfModulation.o

.stab.excl
 *(.stab.excl)

.stab.exclstr
 *(.stab.exclstr)

.stab.index
 *(.stab.index)

.stab.indexstr
 *(.stab.indexstr)

.comment        0x00000000       0x11
 *(.comment)
 .comment       0x00000000       0x11 _BUILD/_commonCode_localized/hfModulation/1.00/hfModulation.o
                                 0x12 (size before relaxing)
 .comment       0x00000000       0x12 _BUILD/_commonCode_localized/timerCommon/1.22/timerCommon.o
 .comment       0x00000000       0x12 _BUILD/_commonCode_localized/heartbeat/1.50/heartbeat.o
 .comment       0x00000000       0x12 _BUILD/_commonCode_localized/tcnter/0.30/tcnter.o
 .comment       0x00000000       0x12 _BUILD/_commonCode_localized/sineTable/0.99/sineTable.o
 .comment       0x00000000       0x12 _BUILD/main.o

.note.gnu.build-id
 *(.note.gnu.build-id)

.debug
 *(.debug)

.line
 *(.line)

.debug_srcinfo
 *(.debug_srcinfo)

.debug_sfnames
 *(.debug_sfnames)

.debug_aranges
 *(.debug_aranges)

.debug_pubnames
 *(.debug_pubnames)

.debug_info     0x00000000      0x4b0
 *(.debug_info .gnu.linkonce.wi.*)
 .debug_info    0x00000000      0x4b0 /opt/local/lib/gcc/avr/4.8.2/../../../../avr/lib/avr25/crttn861.o

.debug_abbrev   0x00000000      0x470
 *(.debug_abbrev)
 .debug_abbrev  0x00000000      0x470 /opt/local/lib/gcc/avr/4.8.2/../../../../avr/lib/avr25/crttn861.o

.debug_line     0x00000000       0x1d
 *(.debug_line .debug_line.* .debug_line_end)
 .debug_line    0x00000000       0x1d /opt/local/lib/gcc/avr/4.8.2/../../../../avr/lib/avr25/crttn861.o

.debug_frame
 *(.debug_frame)

.debug_str      0x00000000      0x1a3
 *(.debug_str)
 .debug_str     0x00000000      0x1a3 /opt/local/lib/gcc/avr/4.8.2/../../../../avr/lib/avr25/crttn861.o

.debug_loc
 *(.debug_loc)

.debug_macinfo
 *(.debug_macinfo)

.debug_weaknames
 *(.debug_weaknames)

.debug_funcnames
 *(.debug_funcnames)

.debug_typenames
 *(.debug_typenames)

.debug_varnames
 *(.debug_varnames)

.debug_pubtypes
 *(.debug_pubtypes)

.debug_ranges
 *(.debug_ranges)

.debug_macro
 *(.debug_macro)
OUTPUT(_BUILD/LCDdirectLVDS.elf elf32-avr)
LOAD linker stubs

Cross Reference Table

Symbol                                            File
__bad_interrupt                                   /opt/local/lib/gcc/avr/4.8.2/../../../../avr/lib/avr25/crttn861.o
__bss_end                                         /opt/local/lib/gcc/avr/4.8.2/avr25/libgcc.a(_clear_bss.o)
__bss_start                                       /opt/local/lib/gcc/avr/4.8.2/avr25/libgcc.a(_clear_bss.o)
__data_end                                        /opt/local/lib/gcc/avr/4.8.2/avr25/libgcc.a(_copy_data.o)
__data_load_start                                 /opt/local/lib/gcc/avr/4.8.2/avr25/libgcc.a(_copy_data.o)
__data_start                                      /opt/local/lib/gcc/avr/4.8.2/avr25/libgcc.a(_copy_data.o)
__divmodhi4                                       /opt/local/lib/gcc/avr/4.8.2/avr25/libgcc.a(_divmodhi4.o)
                                                  _BUILD/_commonCode_localized/sineTable/0.99/sineTable.o
__do_clear_bss                                    /opt/local/lib/gcc/avr/4.8.2/avr25/libgcc.a(_clear_bss.o)
                                                  _BUILD/main.o
                                                  _BUILD/_commonCode_localized/tcnter/0.30/tcnter.o
                                                  _BUILD/_commonCode_localized/heartbeat/1.50/heartbeat.o
__do_copy_data                                    /opt/local/lib/gcc/avr/4.8.2/avr25/libgcc.a(_copy_data.o)
                                                  _BUILD/main.o
                                                  _BUILD/_commonCode_localized/heartbeat/1.50/heartbeat.o
__heap_end                                        /opt/local/lib/gcc/avr/4.8.2/../../../../avr/lib/avr25/crttn861.o
__init                                            /opt/local/lib/gcc/avr/4.8.2/../../../../avr/lib/avr25/crttn861.o
__stack                                           /opt/local/lib/gcc/avr/4.8.2/../../../../avr/lib/avr25/crttn861.o
__udivmodhi4                                      /opt/local/lib/gcc/avr/4.8.2/avr25/libgcc.a(_udivmodhi4.o)
                                                  /opt/local/lib/gcc/avr/4.8.2/avr25/libgcc.a(_divmodhi4.o)
__udivmodsi4                                      /opt/local/lib/gcc/avr/4.8.2/avr25/libgcc.a(_udivmodsi4.o)
                                                  _BUILD/_commonCode_localized/heartbeat/1.50/heartbeat.o
__vector_1                                        /opt/local/lib/gcc/avr/4.8.2/../../../../avr/lib/avr25/crttn861.o
__vector_10                                       /opt/local/lib/gcc/avr/4.8.2/../../../../avr/lib/avr25/crttn861.o
__vector_11                                       /opt/local/lib/gcc/avr/4.8.2/../../../../avr/lib/avr25/crttn861.o
__vector_12                                       /opt/local/lib/gcc/avr/4.8.2/../../../../avr/lib/avr25/crttn861.o
__vector_13                                       /opt/local/lib/gcc/avr/4.8.2/../../../../avr/lib/avr25/crttn861.o
__vector_14                                       _BUILD/main.o
                                                  /opt/local/lib/gcc/avr/4.8.2/../../../../avr/lib/avr25/crttn861.o
__vector_15                                       /opt/local/lib/gcc/avr/4.8.2/../../../../avr/lib/avr25/crttn861.o
__vector_16                                       /opt/local/lib/gcc/avr/4.8.2/../../../../avr/lib/avr25/crttn861.o
__vector_17                                       /opt/local/lib/gcc/avr/4.8.2/../../../../avr/lib/avr25/crttn861.o
__vector_18                                       /opt/local/lib/gcc/avr/4.8.2/../../../../avr/lib/avr25/crttn861.o
__vector_2                                        /opt/local/lib/gcc/avr/4.8.2/../../../../avr/lib/avr25/crttn861.o
__vector_3                                        /opt/local/lib/gcc/avr/4.8.2/../../../../avr/lib/avr25/crttn861.o
__vector_4                                        /opt/local/lib/gcc/avr/4.8.2/../../../../avr/lib/avr25/crttn861.o
__vector_5                                        /opt/local/lib/gcc/avr/4.8.2/../../../../avr/lib/avr25/crttn861.o
__vector_6                                        /opt/local/lib/gcc/avr/4.8.2/../../../../avr/lib/avr25/crttn861.o
__vector_7                                        /opt/local/lib/gcc/avr/4.8.2/../../../../avr/lib/avr25/crttn861.o
__vector_8                                        /opt/local/lib/gcc/avr/4.8.2/../../../../avr/lib/avr25/crttn861.o
__vector_9                                        /opt/local/lib/gcc/avr/4.8.2/../../../../avr/lib/avr25/crttn861.o
__vector_default                                  /opt/local/lib/gcc/avr/4.8.2/../../../../avr/lib/avr25/crttn861.o
__vectors                                         /opt/local/lib/gcc/avr/4.8.2/../../../../avr/lib/avr25/crttn861.o
_div                                              /opt/local/lib/gcc/avr/4.8.2/avr25/libgcc.a(_divmodhi4.o)
_exit                                             /opt/local/lib/gcc/avr/4.8.2/avr25/libgcc.a(_exit.o)
characters                                        _BUILD/main.o
dataEnable                                        _BUILD/main.o
drawPix                                           _BUILD/main.o
exit                                              /opt/local/lib/gcc/avr/4.8.2/avr25/libgcc.a(_exit.o)
                                                  /opt/local/lib/gcc/avr/4.8.2/../../../../avr/lib/avr25/crttn861.o
frameCount                                        _BUILD/main.o
getHeartRate                                      _BUILD/_commonCode_localized/heartbeat/1.50/heartbeat.o
header                                            _BUILD/main.o
heartBlink                                        _BUILD/_commonCode_localized/heartbeat/1.50/heartbeat.o
heartClear                                        _BUILD/_commonCode_localized/heartbeat/1.50/heartbeat.o
heartModulator                                    _BUILD/_commonCode_localized/heartbeat/1.50/heartbeat.o
heartPinInputPoll                                 _BUILD/_commonCode_localized/heartbeat/1.50/heartbeat.o
heartStepTime                                     _BUILD/_commonCode_localized/heartbeat/1.50/heartbeat.o
heartUpdate                                       _BUILD/_commonCode_localized/heartbeat/1.50/heartbeat.o
                                                  _BUILD/main.o
hfm_nextOutput                                    _BUILD/_commonCode_localized/hfModulation/1.00/hfModulation.o
                                                  _BUILD/_commonCode_localized/heartbeat/1.50/heartbeat.o
hfm_setPower                                      _BUILD/_commonCode_localized/hfModulation/1.00/hfModulation.o
                                                  _BUILD/_commonCode_localized/heartbeat/1.50/heartbeat.o
hfm_setup                                         _BUILD/_commonCode_localized/hfModulation/1.00/hfModulation.o
                                                  _BUILD/_commonCode_localized/heartbeat/1.50/heartbeat.o
hsyncCount                                        _BUILD/main.o
init_heartBeat                                    _BUILD/_commonCode_localized/heartbeat/1.50/heartbeat.o
                                                  _BUILD/main.o
init_hsyncTimer                                   _BUILD/main.o
isNewFrame                                        _BUILD/main.o
lcd_init                                          _BUILD/main.o
lcd_update                                        _BUILD/main.o
lvds_timerInit                                    _BUILD/main.o
main                                              _BUILD/main.o
                                                  /opt/local/lib/gcc/avr/4.8.2/../../../../avr/lib/avr25/crttn861.o
pll_enable                                        _BUILD/main.o
quadrantizeTheta                                  _BUILD/_commonCode_localized/sineTable/0.99/sineTable.o
restartFrameUpdate                                _BUILD/main.o
setHeartRate                                      _BUILD/_commonCode_localized/heartbeat/1.50/heartbeat.o
                                                  _BUILD/main.o
set_heartBlink                                    _BUILD/_commonCode_localized/heartbeat/1.50/heartbeat.o
sineRaw                                           _BUILD/_commonCode_localized/sineTable/0.99/sineTable.o
sineRaw8                                          _BUILD/_commonCode_localized/sineTable/0.99/sineTable.o
sineTable                                         _BUILD/_commonCode_localized/sineTable/0.99/sineTable.o
tcnter_get                                        _BUILD/_commonCode_localized/tcnter/0.30/tcnter.o
tcnter_init                                       _BUILD/_commonCode_localized/tcnter/0.30/tcnter.o
                                                  _BUILD/_commonCode_localized/heartbeat/1.50/heartbeat.o
tcnter_lastOverflowTcnt                           _BUILD/_commonCode_localized/tcnter/0.30/tcnter.o
tcnter_lastTcnt                                   _BUILD/_commonCode_localized/tcnter/0.30/tcnter.o
tcnter_myTcnter                                   _BUILD/_commonCode_localized/tcnter/0.30/tcnter.o
                                                  _BUILD/_commonCode_localized/heartbeat/1.50/heartbeat.o
tcnter_overflowUpdate                             _BUILD/_commonCode_localized/tcnter/0.30/tcnter.o
                                                  _BUILD/main.o
tcnter_update                                     _BUILD/_commonCode_localized/tcnter/0.30/tcnter.o
                                                  _BUILD/_commonCode_localized/heartbeat/1.50/heartbeat.o
tcnter_updatesSinceOverflowUpdate                 _BUILD/_commonCode_localized/tcnter/0.30/tcnter.o
tcnter_wait                                       _BUILD/_commonCode_localized/tcnter/0.30/tcnter.o
timer_compareMatchIntSetup                        _BUILD/_commonCode_localized/timerCommon/1.22/timerCommon.o
                                                  _BUILD/main.o
timer_init                                        _BUILD/_commonCode_localized/timerCommon/1.22/timerCommon.o
timer_selectDivisor                               _BUILD/_commonCode_localized/timerCommon/1.22/timerCommon.o
                                                  _BUILD/main.o
timer_setWGM                                      _BUILD/_commonCode_localized/timerCommon/1.22/timerCommon.o
                                                  _BUILD/main.o
updateFrame                                       _BUILD/main.o
vSync                                             _BUILD/main.o
